(lp0
(cnumpy.core.multiarray
scalar
p1
(cnumpy
dtype
p2
(S'f8'
p3
I0
I1
tp4
Rp5
(I3
S'<'
p6
NNNI-1
I-1
I0
tp7
bS'\x00\x00\x00\x00\x00 u@'
p8
tp9
Rp10
S'POLYGON((-608.809998 508.519989,-605.809998 508.519989,-602.799988 510.519989,-599.789978 512.530029,-596.780029 515.539978,-593.77002 514.530029,-590.76001 514.530029,-590.76001 517.539978,-590.76001 520.549988,-592.77002 522.559998,-594.77002 525.570007,-596.780029 528.580017,-598.780029 526.570007,-601.789978 524.559998,-604.799988 525.570007,-607.809998 527.570007,-610.820007 527.570007,-613.830017 528.580017,-616.840027 530.580017,-619.849976 532.590027,-622.859985 534.590027,-625.869995 534.590027,-628.869995 536.599976,-631.880005 539.609985,-634.890015 542.619995,-636.900024 545.630005,-639.909973 547.630005,-642.919983 550.640015,-643.919983 553.650024,-644.919983 556.659973,-645.929993 559.669983,-646.929993 562.679993,-648.929993 565.690002,-651.940002 568.700012,-653.950012 571.700012,-656.960022 571.700012,-657.960022 568.700012,-657.960022 565.690002,-656.960022 562.679993,-657.960022 559.669983,-656.960022 556.659973,-653.950012 554.650024,-652.950012 551.640015,-649.940002 548.640015,-648.929993 545.630005,-645.929993 542.619995,-642.919983 539.609985,-639.909973 537.599976,-636.900024 535.599976,-633.890015 533.590027,-631.880005 530.580017,-628.869995 527.570007,-625.869995 527.570007,-622.859985 524.559998,-619.849976 521.549988,-618.840027 518.549988,-616.840027 515.539978,-613.830017 513.530029,-610.820007 510.519989,-608.809998 508.519989,-608.809998 508.519989))'
p11
tp12
a(g1
(g5
S'\x00\x00\x00\x00\x00 u@'
p13
tp14
Rp15
S'POLYGON((-433.220001 520.460022,-430.209991 521.460022,-427.200012 521.460022,-424.190002 522.469971,-421.179993 522.469971,-418.170013 522.469971,-415.170013 522.469971,-412.160004 525.469971,-410.149994 526.47998,-407.140015 528.47998,-406.140015 531.48999,-408.149994 534.5,-410.149994 537.51001,-409.149994 540.52002,-411.149994 543.530029,-414.160004 542.52002,-417.170013 542.52002,-420.179993 543.530029,-423.190002 544.530029,-426.200012 544.530029,-429.200012 544.530029,-432.209991 546.530029,-435.220001 548.539978,-438.230011 549.539978,-441.23999 550.549988,-444.25 550.549988,-447.26001 551.549988,-450.26001 552.549988,-453.269989 554.559998,-456.279999 557.559998,-459.290009 558.570007,-462.299988 560.570007,-465.309998 560.570007,-468.309998 560.570007,-471.320007 562.580017,-474.329987 562.580017,-477.339996 564.580017,-480.350006 566.590027,-483.359985 569.599976,-486.359985 572.609985,-489.369995 574.609985,-490.380005 577.619995,-490.380005 580.630005,-492.380005 583.640015,-495.390015 585.640015,-498.399994 585.640015,-501.410004 586.650024,-504.420013 587.650024,-507.420013 590.659973,-510.429993 592.659973,-512.440002 595.669983,-513.440002 598.679993,-516.450012 601.690002,-517.450012 604.700012,-519.460022 606.700012,-522.469971 609.710022,-525.469971 611.719971,-527.47998 614.72998,-530.48999 617.72998,-533.5 619.73999,-535.5 622.75,-538.51001 624.75,-540.52002 625.76001,-541.52002 622.75,-541.52002 619.73999,-542.52002 616.72998,-540.52002 613.719971,-538.51001 610.710022,-537.51001 607.710022,-534.5 605.700012,-531.48999 603.690002,-528.47998 601.690002,-526.47998 598.679993,-524.469971 595.669983,-523.469971 592.659973,-520.460022 589.650024,-518.460022 586.650024,-515.450012 584.640015,-512.440002 581.630005,-509.429993 578.619995,-507.420013 575.619995,-504.420013 572.609985,-501.410004 570.599976,-498.399994 569.599976,-495.390015 566.590027,-493.380005 563.580017,-492.380005 560.570007,-490.380005 557.559998,-489.369995 554.559998,-486.359985 552.549988,-484.359985 550.549988,-481.350006 549.539978,-478.339996 549.539978,-475.329987 547.539978,-472.329987 544.530029,-469.320007 542.52002,-466.309998 541.52002,-463.299988 540.52002,-460.290009 538.51001,-457.279999 536.51001,-454.269989 534.5,-451.269989 531.48999,-448.26001 529.48999,-445.25 526.47998,-442.23999 526.47998,-439.230011 525.469971,-436.220001 523.469971,-433.220001 520.460022,-433.220001 520.460022))'
p16
tp17
a(g1
(g5
S'\x00\x00\x00\x00\x00 u@'
p18
tp19
Rp20
S'POLYGON((-364 513.400024,-360.98999 514.409973,-357.980011 515.409973,-354.970001 514.409973,-351.959991 514.409973,-348.950012 514.409973,-345.950012 514.409973,-342.940002 515.409973,-340.929993 518.419983,-340.929993 521.429993,-340.929993 524.429993,-338.929993 527.440002,-336.920013 529.450012,-334.920013 531.450012,-333.910004 534.460022,-332.910004 537.469971,-332.910004 540.47998,-332.910004 543.48999,-335.920013 545.48999,-338.929993 546.48999,-341.940002 549.5,-344.940002 552.51001,-347.950012 552.51001,-350.959991 552.51001,-353.970001 555.52002,-356.980011 555.52002,-359.980011 556.52002,-362.98999 558.530029,-365 558.530029,-368.01001 558.530029,-370.01001 558.530029,-373.019989 556.52002,-376.029999 557.52002,-378.029999 558.530029,-381.040009 558.530029,-383.049988 561.539978,-386.059998 562.539978,-389.059998 563.539978,-392.070007 562.539978,-395.079987 562.539978,-398.089996 564.539978,-401.100006 564.539978,-404.109985 566.549988,-407.109985 568.549988,-409.119995 570.559998,-412.130005 571.559998,-415.140015 573.570007,-418.140015 574.570007,-421.149994 575.570007,-424.160004 576.580017,-427.170013 578.580017,-429.170013 580.590027,-432.179993 582.590027,-435.190002 583.599976,-438.200012 584.599976,-441.209991 584.599976,-444.209991 586.599976,-447.220001 587.609985,-450.230011 588.609985,-453.23999 589.609985,-456.25 591.619995,-458.25 594.630005,-460.26001 597.630005,-462.26001 600.640015,-465.269989 602.650024,-467.279999 604.650024,-470.290009 605.659973,-473.290009 608.659973,-475.299988 611.669983,-475.299988 614.679993,-475.299988 617.690002,-476.299988 619.690002,-479.309998 620.700012,-482.320007 622.700012,-482.320007 625.710022,-482.320007 628.719971,-484.320007 631.72998,-486.329987 634.73999,-489.339996 634.73999,-492.350006 637.73999,-494.350006 640.75,-496.359985 643.76001,-496.359985 646.77002,-498.359985 649.780029,-500.369995 652.789978,-501.369995 655.789978,-499.369995 658.799988,-499.369995 661.809998,-501.369995 662.809998,-504.380005 662.809998,-507.390015 665.820007,-508.390015 668.830017,-511.399994 669.830017,-514.409973 669.830017,-515.409973 666.820007,-513.400024 663.820007,-511.399994 661.809998,-509.390015 658.799988,-508.390015 655.789978,-508.390015 652.789978,-506.380005 650.780029,-504.380005 647.77002,-504.380005 644.76001,-504.380005 641.76001,-504.380005 638.75,-501.369995 635.73999,-500.369995 632.72998,-501.369995 629.719971,-504.380005 626.710022,-505.380005 624.710022,-502.369995 623.710022,-499.369995 621.700012,-496.359985 618.690002,-493.350006 616.690002,-490.339996 614.679993,-488.339996 611.669983,-486.329987 608.659973,-483.320007 608.659973,-480.309998 608.659973,-478.309998 605.659973,-476.299988 602.650024,-475.299988 599.640015,-475.299988 596.630005,-474.299988 593.619995,-474.299988 590.619995,-471.290009 587.609985,-468.279999 584.599976,-465.269989 582.590027,-462.26001 581.590027,-459.26001 581.590027,-456.25 579.590027,-453.23999 576.580017,-450.230011 573.570007,-447.220001 571.559998,-445.220001 568.549988,-442.209991 565.549988,-439.200012 563.539978,-436.190002 562.539978,-433.179993 560.530029,-430.179993 558.530029,-427.170013 556.52002,-424.160004 554.52002,-421.149994 553.51001,-418.140015 551.51001,-415.140015 548.5,-412.130005 545.48999,-409.119995 544.48999,-406.109985 542.47998,-403.100006 540.47998,-400.089996 538.469971,-397.089996 535.460022,-394.079987 532.460022,-391.070007 530.450012,-388.059998 529.450012,-385.049988 526.440002,-382.040009 524.429993,-379.040009 523.429993,-376.029999 521.429993,-373.019989 519.419983,-371.01001 516.409973,-368.01001 515.409973,-365 514.409973,-364 513.400024,-364 513.400024))'
p21
tp22
a(g1
(g5
S'\x00\x00\x00\x00\x00 u@'
p23
tp24
Rp25
S'POLYGON((-262.690002 534.400024,-260.679993 536.409973,-258.679993 539.409973,-255.669998 540.419983,-252.660004 539.409973,-249.649994 539.409973,-246.649994 539.409973,-243.639999 540.419983,-240.630005 541.419983,-237.619995 541.419983,-234.619995 542.419983,-231.610001 543.419983,-228.600006 542.419983,-225.589996 541.419983,-222.580002 540.419983,-220.580002 543.419983,-219.580002 546.429993,-217.570007 549.440002,-219.580002 550.440002,-222.580002 551.450012,-225.589996 554.450012,-226.589996 557.460022,-229.600006 556.460022,-232.610001 559.469971,-235.619995 561.469971,-238.630005 563.47998,-241.630005 565.47998,-244.639999 565.47998,-247.649994 566.48999,-250.660004 567.48999,-253.669998 567.48999,-256.670013 568.48999,-259.679993 570.5,-261.690002 573.5,-259.679993 576.51001,-261.690002 577.51001,-264.690002 579.52002,-267.700012 579.52002,-270.709991 581.52002,-273.720001 582.530029,-276.730011 581.52002,-279.730011 583.530029,-282.73999 585.539978,-285.75 587.539978,-288.76001 588.539978,-291.76001 587.539978,-294.769989 587.539978,-297.779999 586.539978,-300.790009 588.539978,-303.799988 588.539978,-306.799988 588.539978,-309.809998 589.549988,-312.820007 590.549988,-314.829987 593.559998,-317.829987 596.559998,-320.839996 596.559998,-323.850006 596.559998,-326.859985 599.570007,-329.859985 599.570007,-331.869995 602.580017,-333.880005 604.590027,-336.880005 605.590027,-339.890015 608.599976,-342.899994 609.599976,-345.910004 611.599976,-348.910004 612.609985,-351.920013 611.599976,-354.929993 612.609985,-356.940002 615.609985,-358.940002 618.619995,-357.940002 621.630005,-359.940002 622.630005,-362.950012 622.630005,-365.959991 622.630005,-367.959991 625.640015,-368.970001 628.650024,-370.970001 631.659973,-373.980011 633.659973,-376.98999 635.669983,-380 638.669983,-382 641.679993,-384.01001 644.690002,-387.01001 647.700012,-387.01001 650.710022,-390.019989 653.710022,-391.029999 656.719971,-390.019989 659.72998,-389.019989 662.73999,-392.029999 660.72998,-395.040009 661.73999,-398.040009 661.73999,-401.049988 660.72998,-404.059998 661.73999,-404.059998 659.72998,-402.049988 656.719971,-401.049988 653.710022,-400.049988 650.710022,-398.040009 647.700012,-397.040009 644.690002,-397.040009 641.679993,-395.040009 639.679993,-393.029999 636.669983,-391.029999 633.659973,-389.019989 630.650024,-387.01001 629.650024,-384.01001 627.650024,-381 626.640015,-378.98999 624.640015,-375.98999 622.630005,-372.980011 619.619995,-371.980011 616.619995,-368.970001 613.609985,-366.959991 610.599976,-365.959991 607.590027,-362.950012 605.590027,-359.940002 603.580017,-356.940002 601.580017,-354.929993 598.570007,-351.920013 595.559998,-350.920013 592.549988,-348.910004 590.549988,-345.910004 588.539978,-342.899994 587.539978,-339.890015 586.539978,-336.880005 585.539978,-333.880005 584.530029,-330.869995 582.530029,-327.859985 580.52002,-324.850006 578.52002,-321.839996 576.51001,-319.839996 573.5,-316.829987 571.5,-313.820007 568.48999,-311.820007 565.47998,-308.809998 563.47998,-305.799988 560.469971,-302.790009 558.460022,-299.790009 556.460022,-296.779999 553.450012,-294.769989 550.440002,-291.76001 547.440002,-288.76001 549.440002,-285.75 548.440002,-282.73999 545.429993,-280.73999 542.419983,-278.730011 543.419983,-275.720001 545.429993,-272.720001 544.429993,-269.709991 541.419983,-270.709991 538.409973,-271.709991 535.400024,-268.700012 535.400024,-265.700012 535.400024,-262.690002 534.400024,-262.690002 534.400024))'
p26
tp27
a(g1
(g5
S'\x00\x00\x00\x00\x00 u@'
p28
tp29
Rp30
S'POLYGON((-205.529999 531.369995,-203.520004 534.369995,-201.520004 537.380005,-200.520004 540.390015,-203.520004 542.390015,-205.529999 545.400024,-203.520004 548.409973,-200.520004 549.409973,-197.509995 550.409973,-194.5 550.409973,-191.490005 549.409973,-188.479996 549.409973,-185.479996 549.409973,-182.470001 548.409973,-179.460007 551.419983,-176.449997 550.409973,-173.449997 550.409973,-170.440002 550.409973,-167.429993 550.409973,-164.419998 551.419983,-161.410004 553.419983,-159.410004 555.429993,-157.399994 558.440002,-155.399994 561.440002,-152.389999 562.450012,-149.380005 562.450012,-146.380005 563.450012,-143.369995 564.450012,-140.360001 565.450012,-137.350006 565.450012,-134.350006 565.450012,-135.350006 567.460022,-138.360001 567.460022,-141.360001 568.460022,-144.369995 568.460022,-147.380005 568.460022,-150.389999 569.460022,-153.389999 567.460022,-156.399994 567.460022,-159.410004 567.460022,-162.419998 568.460022,-165.429993 570.469971,-166.429993 573.469971,-165.429993 576.47998,-168.429993 577.47998,-171.440002 578.48999,-174.449997 579.48999,-177.460007 580.48999,-180.460007 580.48999,-183.470001 580.48999,-186.479996 581.48999,-189.490005 582.5,-192.490005 583.5,-195.5 584.5,-198.509995 585.51001,-201.520004 585.51001,-204.529999 585.51001,-207.529999 586.51001,-210.539993 588.51001,-211.539993 591.52002,-209.539993 594.530029,-212.550003 593.530029,-215.550003 591.52002,-218.559998 592.52002,-219.559998 595.530029,-222.570007 596.530029,-225.580002 597.539978,-228.589996 598.539978,-231.600006 598.539978,-234.600006 599.539978,-237.610001 600.539978,-240.619995 601.549988,-243.630005 603.549988,-246.630005 605.559998,-249.639999 607.559998,-252.649994 608.559998,-255.660004 610.570007,-258.660004 612.570007,-261.670013 614.580017,-264.679993 615.580017,-267.690002 615.580017,-270.700012 617.590027,-273.700012 620.599976,-275.709991 622.599976,-278.720001 624.609985,-280.720001 626.609985,-283.730011 626.609985,-286.73999 624.609985,-289.73999 623.599976,-292.75 624.609985,-294.76001 627.609985,-297.769989 628.619995,-300.769989 630.619995,-303.779999 631.619995,-306.790009 632.630005,-309.799988 634.630005,-309.799988 637.640015,-309.799988 640.650024,-311.799988 643.650024,-313.809998 644.659973,-316.809998 643.650024,-319.820007 643.650024,-322.829987 645.659973,-325.839996 648.669983,-327.839996 651.679993,-330.850006 654.679993,-333.859985 657.690002,-335.859985 660.700012,-338.869995 663.710022,-339.869995 666.710022,-341.880005 669.719971,-344.890015 671.72998,-347.890015 673.72998,-350.899994 676.73999,-353.910004 678.73999,-356.920013 681.75,-359.929993 683.76001,-362.929993 686.77002,-365.940002 689.77002,-368.950012 691.780029,-371.959991 692.780029,-374.959991 694.789978,-376.970001 697.789978,-376.970001 700.799988,-374.959991 703.809998,-371.959991 703.809998,-371.959991 704.809998,-374.959991 704.809998,-377.970001 706.820007,-380.980011 703.809998,-383.98999 702.809998,-382.980011 699.799988,-380.980011 696.789978,-380.980011 693.780029,-381.980011 690.780029,-384.98999 688.77002,-388 686.77002,-391.01001 688.77002,-392.01001 691.780029,-395.019989 693.780029,-398.019989 694.789978,-401.029999 692.780029,-399.029999 689.77002,-398.019989 686.77002,-396.019989 683.76001,-395.019989 680.75,-393.01001 677.73999,-392.01001 674.72998,-389 674.72998,-385.98999 673.72998,-382.980011 670.719971,-379.980011 671.72998,-377.970001 674.72998,-374.959991 674.72998,-371.959991 672.72998,-368.950012 671.72998,-365.940002 670.719971,-362.929993 667.719971,-362.929993 664.710022,-362.929993 661.700012,-361.929993 658.690002,-359.929993 655.690002,-357.920013 652.679993,-355.910004 649.669983,-353.910004 646.659973,-351.899994 643.650024,-349.899994 640.650024,-347.890015 637.640015,-346.890015 634.630005,-346.890015 631.619995,-344.890015 630.619995,-342.880005 627.609985,-340.880005 624.609985,-338.869995 621.599976,-335.859985 620.599976,-332.859985 618.590027,-329.850006 616.590027,-326.839996 616.590027,-323.829987 616.590027,-320.820007 613.580017,-318.820007 610.570007,-317.820007 607.559998,-317.820007 604.549988,-316.809998 601.549988,-313.809998 598.539978,-310.799988 599.539978,-307.790009 598.539978,-306.790009 595.530029,-304.779999 592.52002,-302.779999 590.52002,-300.769989 591.52002,-298.769989 594.530029,-295.76001 594.530029,-293.76001 591.52002,-291.75 590.52002,-288.73999 589.52002,-285.730011 586.51001,-282.730011 583.5,-280.720001 581.48999,-277.709991 581.48999,-274.709991 581.48999,-271.700012 580.48999,-268.690002 578.48999,-265.679993 577.47998,-262.679993 576.47998,-259.670013 575.47998,-256.660004 573.469971,-253.649994 571.469971,-251.649994 568.460022,-248.639999 567.460022,-245.630005 570.469971,-242.619995 569.460022,-239.619995 568.460022,-237.610001 565.450012,-237.610001 562.450012,-236.610001 559.440002,-233.600006 558.440002,-230.589996 558.440002,-227.589996 558.440002,-224.580002 558.440002,-221.570007 558.440002,-219.559998 555.429993,-218.559998 552.419983,-215.550003 550.409973,-212.550003 548.409973,-213.550003 545.400024,-216.559998 543.400024,-218.559998 541.390015,-216.559998 538.380005,-215.550003 535.380005,-216.559998 532.369995,-213.550003 533.369995,-210.539993 533.369995,-207.529999 532.369995,-205.529999 531.369995,-205.529999 531.369995))'
p31
tp32
a(g1
(g5
S'\x00\x00\x00\x00\x00\xf4\x95@'
p33
tp34
Rp35
S'POLYGON((-891 38.0200005,-889.049988 38.9900017,-887.099976 41.9199982,-885.150024 44.8400002,-883.200012 47.7700005,-881.25 50.6899986,-880.280029 53.6199989,-879.299988 56.5400009,-879.299988 59.4599991,-880.280029 62.3899994,-879.299988 65.3099976,-877.349976 68.2399979,-876.380005 71.1600037,-878.330017 73.1100006,-881.25 75.0599976,-883.200012 77.9899979,-885.150024 80.9100037,-885.150024 83.8399963,-885.150024 86.7600021,-885.150024 89.6800003,-884.179993 92.6100006,-883.200012 95.5299988,-882.22998 98.4599991,-882.22998 101.379997,-881.25 104.309998,-880.280029 107.230003,-879.299988 110.160004,-878.330017 113.080002,-879.299988 116.010002,-881.25 117.959999,-884.179993 119.900002,-884.179993 122.830002,-881.25 125.75,-878.330017 127.699997,-876.380005 130.630005,-873.450012 133.550003,-873.450012 136.479996,-874.429993 139.399994,-877.349976 141.350006,-878.330017 144.279999,-877.349976 147.199997,-875.400024 150.119995,-875.400024 153.050003,-876.380005 155.970001,-876.380005 158.899994,-878.330017 161.820007,-881.25 163.770004,-884.179993 166.699997,-886.130005 169.619995,-887.099976 172.550003,-887.099976 175.470001,-888.070007 178.389999,-887.099976 181.320007,-886.130005 184.240005,-886.130005 187.169998,-887.099976 190.089996,-888.070007 193.020004,-889.049988 195.940002,-891.969971 194.970001,-892.950012 192.039993,-892.950012 189.119995,-893.919983 186.190002,-893.919983 183.270004,-894.900024 180.339996,-895.869995 177.419998,-895.869995 174.5,-896.849976 171.570007,-896.849976 168.649994,-897.820007 165.720001,-897.820007 162.800003,-898.799988 159.869995,-899.77002 156.949997,-899.77002 154.020004,-900.75 151.100006,-900.75 148.169998,-901.719971 145.25,-901.719971 142.330002,-901.719971 139.399994,-902.700012 136.479996,-902.700012 133.550003,-902.700012 130.630005,-903.669983 127.699997,-904.650024 124.779999,-904.650024 121.849998,-904.650024 118.93,-905.619995 116.010002,-905.619995 113.080002,-906.599976 110.160004,-906.599976 107.230003,-906.599976 104.309998,-907.570007 101.379997,-907.570007 98.4599991,-907.570007 95.5299988,-908.549988 92.6100006,-908.549988 89.6800003,-908.549988 86.7600021,-908.549988 83.8399963,-909.52002 80.9100037,-909.52002 77.9899979,-909.52002 75.0599976,-910.5 72.1399994,-910.5 69.2099991,-910.5 66.2900009,-910.5 63.3600006,-910.5 60.4399986,-910.5 57.5200005,-907.570007 59.4599991,-904.650024 60.4399986,-901.719971 59.4599991,-898.799988 58.4900017,-895.869995 57.5200005,-894.900024 54.5900002,-896.849976 51.6699982,-895.869995 48.7400017,-896.849976 45.8199997,-896.849976 42.8899994,-893.919983 40.9399986,-891 38.9900017,-891 38.0200005,-891 38.0200005))'
p36
tp37
a(g1
(g5
S'\x00\x00\x00\x00\x00\xf4\x95@'
p38
tp39
Rp40
S'POLYGON((-843.179993 74.0800018,-840.25 74.0800018,-837.330017 76.0299988,-838.299988 78.9599991,-838.299988 81.8799973,-836.359985 84.8099976,-833.429993 83.8300018,-830.51001 83.8300018,-827.580017 83.8300018,-825.630005 85.7799988,-828.559998 85.7799988,-830.51001 88.6999969,-828.559998 91.6299973,-829.530029 92.5999985,-832.460022 93.5800018,-835.380005 94.5500031,-838.299988 95.5299988,-839.280029 98.4499969,-836.359985 100.400002,-835.380005 102.349998,-837.330017 105.279999,-836.359985 108.199997,-838.299988 109.169998,-841.22998 107.230003,-844.150024 109.169998,-845.130005 112.099998,-848.049988 114.050003,-850 116,-852.929993 118.919998,-853.900024 121.849998,-856.830017 123.800003,-850.97998 135.490005,-850 138.419998,-847.080017 139.389999,-848.049988 142.320007,-848.049988 145.240005,-847.080017 148.169998,-845.130005 151.089996,-842.200012 151.089996,-840.25 148.169998,-840.25 146.220001,-837.330017 144.270004,-838.299988 141.339996,-840.25 139.389999,-840.25 138.419998,-837.330017 140.369995,-834.409973 141.339996,-831.47998 140.369995,-828.559998 139.389999,-827.580017 142.320007,-828.559998 145.240005,-831.47998 147.190002,-834.409973 149.139999,-835.380005 152.059998,-836.359985 154.990005,-833.429993 157.910004,-834.409973 160.839996,-835.380005 163.759995,-838.299988 162.789993,-841.22998 165.710007,-841.22998 168.639999,-838.299988 171.559998,-835.380005 171.559998,-833.429993 172.529999,-832.460022 175.460007,-834.409973 177.410004,-836.359985 180.330002,-837.330017 183.259995,-837.330017 186.179993,-840.25 188.130005,-842.200012 191.059998,-841.22998 193.979996,-843.179993 194.949997,-846.099976 193.979996,-848.049988 191.059998,-850.97998 189.110001,-850.97998 187.160004,-852.929993 184.229996,-855.849976 185.210007,-858.780029 188.130005,-858.780029 185.210007,-855.849976 182.279999,-855.849976 179.360001,-855.849976 176.429993,-854.880005 173.509995,-855.849976 170.589996,-858.780029 167.660004,-860.719971 165.710007,-860.719971 162.789993,-862.669983 159.860001,-862.669983 156.940002,-861.700012 154.009995,-861.700012 151.089996,-860.719971 148.169998,-859.75 145.240005,-860.719971 142.320007,-859.75 139.389999,-860.719971 136.470001,-857.799988 136.470001,-854.880005 136.470001,-857.799988 124.769997,-858.780029 121.849998,-860.719971 119.900002,-863.650024 117.949997,-866.570007 119.900002,-867.549988 121.849998,-868.52002 118.919998,-868.52002 116,-869.5 113.07,-869.5 110.150002,-870.469971 107.230003,-868.52002 104.300003,-868.52002 101.379997,-868.52002 98.4499969,-868.52002 95.5299988,-868.52002 92.5999985,-868.52002 89.6800003,-865.599976 90.6500015,-864.619995 92.5999985,-863.650024 95.5299988,-860.719971 97.4800034,-857.799988 95.5299988,-854.880005 97.4800034,-851.950012 97.4800034,-849.030029 95.5299988,-849.030029 92.5999985,-848.049988 89.6800003,-848.049988 86.75,-848.049988 83.8300018,-846.099976 80.9100037,-844.150024 77.9800034,-844.150024 75.0599976,-843.179993 74.0800018,-843.179993 74.0800018))'
p41
tp42
a(g1
(g5
S'\x00\x00\x00\x00\x00\xf4\x95@'
p43
tp44
Rp45
S'POLYGON((-807.059998 52.6300011,-804.140015 54.5800018,-804.140015 57.5099983,-804.140015 60.4300003,-802.190002 63.3600006,-799.26001 64.3300018,-796.340027 62.3800011,-793.419983 61.4099998,-790.48999 59.4599991,-787.570007 58.4799995,-784.640015 56.5299988,-781.719971 54.5800018,-779.77002 55.5600014,-777.820007 58.4799995,-775.869995 61.4099998,-772.950012 62.3800011,-771 59.4599991,-769.049988 59.4599991,-766.119995 59.4599991,-764.169983 62.3800011,-763.200012 65.3099976,-763.200012 68.2300034,-766.119995 71.1500015,-768.070007 74.0800018,-770.02002 77,-772.950012 77.9800034,-775.869995 80.9000015,-776.840027 83.8300018,-775.869995 86.75,-774.900024 89.6699982,-776.840027 92.5999985,-777.820007 95.5199966,-777.820007 98.4499969,-777.820007 101.370003,-777.820007 104.290001,-778.789978 107.220001,-779.77002 110.139999,-779.77002 113.07,-777.820007 115.989998,-777.820007 118.910004,-776.840027 121.839996,-774.900024 124.760002,-776.840027 127.690002,-776.840027 130.610001,-776.840027 133.539993,-775.869995 136.460007,-777.820007 139.380005,-776.840027 142.309998,-776.840027 145.229996,-775.869995 148.160004,-775.869995 151.080002,-775.869995 154,-775.869995 156.929993,-775.869995 159.850006,-775.869995 162.779999,-775.869995 165.699997,-775.869995 168.630005,-774.900024 171.550003,-772.950012 174.470001,-773.919983 177.399994,-774.900024 178.369995,-777.820007 176.419998,-780.73999 177.399994,-782.690002 180.320007,-784.640015 183.25,-785.619995 186.169998,-788.539978 188.119995,-790.48999 191.039993,-790.48999 193.970001,-788.539978 196.889999,-790.48999 199.820007,-793.419983 200.789993,-796.340027 199.820007,-799.26001 200.789993,-800.23999 203.710007,-801.210022 206.639999,-800.23999 209.559998,-800.23999 212.490005,-786.590027 251.479996,-785.619995 254.399994,-783.669983 257.320007,-783.669983 260.25,-782.690002 263.170013,-779.77002 265.119995,-778.789978 267.070007,-778.789978 270,-778.789978 272.920013,-781.719971 273.890015,-784.640015 274.869995,-787.570007 276.820007,-789.52002 275.839996,-790.48999 272.920013,-790.48999 270,-791.469971 267.070007,-788.539978 265.119995,-788.539978 262.200012,-788.539978 259.269989,-789.52002 256.350006,-789.52002 253.419998,-801.210022 214.440002,-804.140015 212.490005,-806.090027 210.539993,-808.039978 207.610001,-809.01001 204.690002,-809.01001 201.770004,-807.059998 198.839996,-806.090027 195.919998,-807.059998 192.990005,-808.039978 190.070007,-808.039978 187.139999,-808.039978 184.220001,-808.039978 181.300003,-808.039978 178.369995,-809.01001 175.449997,-809.98999 172.520004,-812.909973 171.550003,-813.880005 169.600006,-814.859985 166.679993,-814.859985 163.75,-817.780029 161.800003,-820.710022 161.800003,-823.630005 159.850006,-826.559998 157.899994,-829.47998 155.949997,-831.429993 154,-828.5 154,-825.580017 154.979996,-823.630005 152.050003,-822.659973 149.130005,-823.630005 146.210007,-823.630005 143.279999,-822.659973 140.360001,-824.609985 137.429993,-824.609985 134.509995,-824.609985 131.589996,-825.580017 128.660004,-825.580017 125.739998,-825.580017 122.809998,-825.580017 119.889999,-824.609985 116.970001,-825.580017 114.040001,-826.559998 111.120003,-827.530029 108.190002,-827.530029 105.269997,-830.450012 102.339996,-829.47998 99.4199982,-828.5 96.5,-827.530029 93.5699997,-827.530029 90.6500015,-826.559998 87.7200012,-825.580017 84.8000031,-825.580017 81.8799973,-825.580017 78.9499969,-825.580017 76.0299988,-825.580017 73.0999985,-824.609985 70.1800003,-821.679993 67.2600021,-820.710022 64.3300018,-819.72998 61.4099998,-817.780029 60.4300003,-814.859985 58.4799995,-812.909973 55.5600014,-809.98999 53.6100006,-807.059998 52.6300011,-807.059998 52.6300011))'
p46
tp47
a(g1
(g5
S'\x00\x00\x00\x00\x00\xf4\x95@'
p48
tp49
Rp50
S'POLYGON((-720.27002 78.9499969,-717.340027 81.8700027,-714.419983 82.8499985,-711.48999 83.8199997,-708.570007 82.8499985,-705.650024 80.9000015,-702.719971 81.8700027,-699.799988 83.8199997,-700.77002 86.7399979,-702.719971 88.6900024,-704.669983 91.6200027,-705.650024 94.5400009,-705.650024 97.4599991,-708.570007 100.389999,-710.52002 103.309998,-713.440002 103.309998,-716.369995 104.290001,-718.320007 107.209999,-718.320007 110.139999,-715.390015 113.059998,-712.469971 112.080002,-711.48999 115.010002,-713.440002 117.93,-711.48999 120.860001,-710.52002 123.779999,-711.48999 126.699997,-714.419983 128.649994,-716.369995 131.580002,-715.390015 134.5,-716.369995 137.429993,-714.419983 140.350006,-711.48999 142.300003,-708.570007 144.25,-705.650024 147.169998,-703.700012 149.119995,-704.669983 152.050003,-705.650024 154.970001,-705.650024 157.889999,-703.700012 160.820007,-705.650024 163.740005,-705.650024 166.669998,-704.669983 169.589996,-703.700012 172.509995,-702.719971 175.440002,-702.719971 178.360001,-701.75 181.279999,-698.820007 184.210007,-698.820007 187.130005,-697.849976 189.080002,-700.77002 190.059998,-701.75 192.979996,-704.669983 192.979996,-707.599976 191.029999,-710.52002 191.029999,-712.469971 193.960007,-712.469971 196.880005,-714.419983 199.800003,-715.390015 202.729996,-716.369995 205.649994,-717.340027 208.570007,-716.369995 211.5,-716.369995 214.419998,-716.369995 217.350006,-719.289978 217.350006,-721.23999 216.369995,-721.23999 213.449997,-720.27002 210.520004,-722.219971 207.600006,-725.140015 204.679993,-728.059998 204.679993,-729.039978 203.699997,-727.090027 201.75,-725.140015 198.830002,-727.090027 195.899994,-730.01001 194.929993,-731.960022 194.929993,-733.909973 192.009995,-734.890015 190.059998,-737.809998 187.130005,-737.809998 184.210007,-737.809998 181.279999,-738.780029 178.360001,-737.809998 175.440002,-739.76001 172.509995,-742.679993 173.490005,-745.609985 175.440002,-747.559998 172.509995,-750.47998 171.539993,-753.400024 172.509995,-756.330017 174.460007,-758.280029 177.389999,-760.22998 174.460007,-759.25 171.539993,-758.280029 168.610001,-758.280029 165.690002,-759.25 162.770004,-758.280029 159.839996,-756.330017 156.919998,-756.330017 153.990005,-757.299988 151.070007,-755.349976 150.100006,-752.429993 149.119995,-751.450012 146.199997,-751.450012 143.270004,-752.429993 140.350006,-753.400024 137.429993,-754.380005 134.5,-755.349976 131.580002,-754.380005 128.649994,-755.349976 125.730003,-753.400024 124.760002,-750.47998 122.809998,-748.530029 119.879997,-745.609985 120.860001,-742.679993 119.879997,-740.72998 116.959999,-742.679993 114.029999,-744.630005 111.110001,-745.609985 109.160004,-742.679993 110.139999,-739.76001 109.160004,-736.830017 109.160004,-733.909973 107.209999,-731.960022 106.239998,-729.039978 104.290001,-727.090027 101.360001,-727.090027 98.4400024,-726.109985 95.5199966,-724.159973 96.4899979,-724.159973 99.4100037,-721.23999 101.360001,-718.320007 99.4100037,-718.320007 96.4899979,-717.340027 93.5699997,-719.289978 90.6399994,-722.219971 90.6399994,-724.159973 87.7200012,-723.190002 84.7900009,-721.23999 81.8700027,-720.27002 78.9499969,-720.27002 78.9499969))'
p51
tp52
a(g1
(g5
S'\x00\x00\x00\x00\x00\x90\x9b@'
p53
tp54
Rp55
S'POLYGON((-853.390015 220.889999,-851.450012 223.809998,-850.469971 226.729996,-848.530029 229.649994,-849.5 232.570007,-851.450012 234.509995,-853.390015 237.429993,-853.390015 240.350006,-854.369995 243.270004,-856.309998 246.190002,-858.26001 249.110001,-859.22998 252.029999,-860.200012 254.949997,-861.179993 257.869995,-861.179993 260.790009,-862.150024 263.709991,-862.150024 266.619995,-863.119995 269.540009,-862.150024 272.459991,-863.119995 275.380005,-863.119995 278.299988,-863.119995 281.220001,-863.119995 284.140015,-863.119995 287.059998,-865.070007 286.089996,-865.070007 283.170013,-866.039978 280.25,-867.02002 277.329987,-865.070007 274.410004,-866.039978 271.48999,-866.039978 268.570007,-867.02002 265.649994,-866.039978 262.730011,-866.039978 259.809998,-866.039978 256.890015,-867.02002 253.970001,-866.039978 251.059998,-866.039978 248.139999,-865.070007 245.220001,-865.070007 242.300003,-862.150024 239.380005,-859.22998 237.429993,-858.26001 234.509995,-856.309998 231.589996,-856.309998 228.669998,-854.369995 225.759995,-853.390015 222.839996,-853.390015 220.889999,-853.390015 220.889999))'
p56
tp57
a(g1
(g5
S'\x00\x00\x00\x00\x00\x90\x9b@'
p58
tp59
Rp60
S'POLYGON((-800.849976 193.639999,-800.849976 196.559998,-799.869995 199.479996,-800.849976 202.399994,-800.849976 205.320007,-801.820007 208.240005,-803.77002 211.160004,-804.73999 214.080002,-806.690002 217,-808.630005 218.940002,-811.549988 221.860001,-813.5 224.779999,-815.440002 227.699997,-818.359985 229.649994,-819.340027 232.570007,-820.309998 235.490005,-821.280029 238.410004,-821.280029 241.320007,-821.280029 244.240005,-821.280029 247.160004,-821.280029 250.080002,-822.25 253,-824.200012 257.869995,-823.22998 260.790009,-823.22998 263.709991,-823.22998 266.619995,-822.25 269.540009,-822.25 272.459991,-819.340027 274.410004,-817.390015 276.359985,-819.340027 279.269989,-822.25 279.269989,-825.169983 277.329987,-828.090027 278.299988,-831.01001 280.25,-833.929993 283.170013,-833.929993 286.089996,-834.900024 289.01001,-837.820007 291.920013,-840.73999 294.839996,-842.690002 293.869995,-845.609985 290.950012,-844.640015 288.029999,-844.640015 285.109985,-843.659973 282.190002,-841.719971 280.25,-838.799988 279.269989,-835.880005 276.359985,-834.900024 273.440002,-833.929993 270.519989,-833.929993 267.600006,-831.98999 264.679993,-831.01001 261.76001,-830.039978 258.839996,-827.119995 257.869995,-823.22998 253.970001,-824.200012 251.059998,-825.169983 248.139999,-825.169983 245.220001,-826.150024 242.300003,-826.150024 239.380005,-826.150024 236.460007,-825.169983 233.539993,-825.169983 230.619995,-824.200012 227.699997,-824.200012 224.779999,-823.22998 221.860001,-822.25 218.940002,-822.25 216.020004,-821.280029 213.110001,-819.340027 212.130005,-816.419983 213.110001,-813.5 210.190002,-811.549988 207.270004,-809.599976 204.350006,-808.630005 201.429993,-807.659973 198.509995,-805.710022 195.589996,-802.789978 194.619995,-800.849976 193.639999,-800.849976 193.639999))'
p61
tp62
a(g1
(g5
S'\x00\x00\x00\x00\x00\x90\x9b@'
p63
tp64
Rp65
S'POLYGON((-744.419983 212.130005,-742.469971 213.110001,-743.440002 216.029999,-744.419983 218.949997,-744.419983 221.869995,-744.419983 224.779999,-746.359985 227.699997,-746.359985 230.619995,-749.280029 231.600006,-751.22998 234.520004,-754.150024 236.460007,-757.070007 237.429993,-759.98999 238.410004,-762.900024 241.330002,-764.849976 244.25,-766.799988 247.169998,-768.73999 250.080002,-768.73999 253,-770.690002 255.919998,-770.690002 258.839996,-771.659973 261.76001,-770.690002 264.679993,-770.690002 267.600006,-770.690002 270.519989,-770.690002 273.440002,-770.690002 276.359985,-771.659973 279.279999,-772.640015 282.200012,-772.640015 285.119995,-772.640015 288.040009,-775.549988 289.01001,-778.469971 290.950012,-781.390015 289.980011,-783.340027 292.899994,-785.289978 295.820007,-787.22998 298.73999,-788.210022 301.660004,-791.119995 303.600006,-794.039978 305.549988,-796.960022 307.5,-799.880005 310.420013,-802.799988 309.440002,-804.75 307.5,-803.77002 304.579987,-802.799988 301.660004,-799.880005 299.709991,-796.960022 297.769989,-794.039978 295.820007,-791.119995 294.850006,-789.179993 291.929993,-787.22998 289.01001,-787.22998 286.089996,-786.26001 283.170013,-786.26001 280.25,-783.340027 278.299988,-780.419983 276.359985,-777.5 278.299988,-774.580017 277.329987,-773.609985 274.410004,-774.580017 271.48999,-774.580017 268.570007,-776.530029 265.649994,-776.530029 262.73999,-775.549988 259.820007,-777.5 256.899994,-774.580017 253.979996,-774.580017 251.059998,-774.580017 248.139999,-772.640015 245.220001,-773.609985 242.300003,-772.640015 239.380005,-769.719971 236.460007,-767.77002 233.539993,-764.849976 233.539993,-761.929993 231.600006,-759.98999 228.679993,-757.070007 226.729996,-754.150024 225.759995,-751.22998 222.839996,-749.280029 219.919998,-748.309998 217,-746.359985 214.080002,-744.419983 212.130005,-744.419983 212.130005))'
p66
tp67
a(g1
(g5
S'\x00\x00\x00\x00\x00\x90\x9b@'
p68
tp69
Rp70
S'POLYGON((-668.52002 172.240005,-665.599976 172.240005,-662.679993 173.210007,-662.679993 176.130005,-662.679993 179.050003,-664.630005 181.970001,-666.580017 184.889999,-669.48999 187.809998,-669.48999 190.729996,-670.469971 193.649994,-671.440002 196.570007,-672.409973 199.490005,-673.390015 202.410004,-676.309998 205.320007,-679.22998 208.240005,-681.169983 211.160004,-683.119995 213.110001,-686.039978 214.080002,-688.960022 215.059998,-691.880005 216.029999,-694.799988 218.949997,-697.710022 220.889999,-700.630005 222.839996,-703.549988 225.759995,-705.5 228.679993,-707.450012 231.600006,-710.369995 234.520004,-711.340027 237.440002,-712.309998 240.360001,-713.280029 243.279999,-713.280029 246.199997,-713.280029 249.110001,-714.26001 252.029999,-715.22998 254.949997,-717.179993 257.869995,-716.200012 260.790009,-716.200012 263.709991,-719.119995 264.679993,-722.039978 265.660004,-723.98999 268.579987,-724.960022 271.5,-726.909973 274.420013,-729.830017 275.390015,-732.75 277.329987,-735.669983 278.309998,-738.590027 280.25,-741.5 281.230011,-744.419983 281.230011,-747.340027 282.200012,-750.26001 285.119995,-751.23999 288.040009,-754.150024 289.01001,-756.099976 291.929993,-756.099976 294.850006,-755.130005 297.769989,-755.130005 300.690002,-756.099976 303.609985,-757.070007 306.529999,-759.98999 308.470001,-762.909973 310.420013,-764.859985 313.339996,-764.859985 316.26001,-766.809998 319.179993,-768.75 322.100006,-769.719971 325.019989,-772.640015 326.959991,-775.559998 328.910004,-778.47998 329.880005,-781.400024 329.880005,-784.320007 329.880005,-787.23999 328.910004,-790.159973 327.940002,-793.080017 325.98999,-796 325.98999,-798.919983 325.98999,-801.840027 324.040009,-803.780029 321.119995,-806.700012 319.179993,-809.619995 316.26001,-811.570007 313.339996,-814.48999 311.390015,-816.429993 308.470001,-819.349976 305.549988,-822.27002 302.640015,-825.190002 299.720001,-828.109985 299.720001,-829.080017 297.769989,-830.059998 294.850006,-832 291.929993,-832.97998 289.01001,-833.950012 286.089996,-836.869995 283.170013,-837.840027 281.230011,-838.809998 278.309998,-840.76001 276.359985,-842.710022 273.440002,-841.72998 270.519989,-842.710022 267.600006,-843.679993 264.679993,-844.650024 261.76001,-844.650024 258.850006,-845.630005 255.929993,-846.599976 253.009995,-843.679993 253.979996,-840.76001 254.949997,-837.840027 257.869995,-834.919983 258.850006,-832 259.820007,-830.059998 259.820007,-828.109985 262.73999,-825.190002 262.73999,-823.25 263.709991,-822.27002 266.630005,-822.27002 269.549988,-819.349976 271.5,-818.380005 273.440002,-819.349976 276.359985,-820.330017 279.279999,-820.330017 282.200012,-819.349976 285.119995,-817.409973 288.040009,-817.409973 290.959991,-815.460022 293.880005,-812.539978 296.799988,-809.619995 298.73999,-806.700012 300.690002,-803.780029 302.640015,-800.859985 302.640015,-798.919983 299.720001,-796.969971 296.799988,-795.030029 294.850006,-792.109985 296.799988,-793.080017 299.720001,-794.049988 302.640015,-792.109985 305.549988,-789.190002 306.529999,-786.27002 306.529999,-783.349976 306.529999,-783.349976 309.450012,-783.349976 312.369995,-782.369995 315.290009,-781.400024 318.200012,-780.429993 321.119995,-777.51001 323.070007,-774.590027 323.070007,-771.669983 322.100006,-768.75 319.179993,-768.75 316.26001,-768.75 313.339996,-767.780029 310.420013,-766.809998 307.5,-765.830017 304.579987,-764.859985 301.660004,-764.859985 298.73999,-763.890015 295.820007,-764.859985 292.899994,-766.809998 289.980011,-763.890015 287.070007,-762.909973 284.149994,-760.969971 282.200012,-758.049988 280.25,-755.130005 279.279999,-752.210022 280.25,-749.289978 277.329987,-747.340027 274.420013,-744.419983 272.470001,-741.5 270.519989,-738.590027 270.519989,-735.669983 271.5,-732.75 270.519989,-729.830017 267.600006,-728.849976 264.679993,-726.909973 261.76001,-725.929993 258.850006,-723.98999 255.929993,-721.070007 253.009995,-720.099976 250.089996,-720.099976 247.169998,-720.099976 244.25,-721.070007 241.330002,-720.099976 238.410004,-720.099976 235.490005,-719.119995 232.570007,-716.200012 230.630005,-714.26001 227.710007,-714.26001 224.789993,-714.26001 221.869995,-713.280029 218.949997,-710.369995 217,-708.419983 215.059998,-705.5 215.059998,-702.580017 212.139999,-700.630005 209.220001,-698.690002 206.300003,-696.73999 204.350006,-693.820007 204.350006,-690.900024 203.380005,-687.97998 203.380005,-685.059998 202.410004,-682.150024 200.460007,-679.22998 198.509995,-676.309998 195.589996,-674.359985 192.669998,-675.330017 189.759995,-675.330017 186.839996,-674.359985 183.919998,-673.390015 181,-672.409973 178.080002,-670.469971 175.160004,-668.52002 172.240005,-668.52002 172.240005))'
p71
tp72
a(g1
(g5
S'\x00\x00\x00\x00\x00\x90\x9b@'
p73
tp74
Rp75
S'POLYGON((-582.890015 180.029999,-582.890015 182.949997,-583.869995 185.860001,-585.809998 188.779999,-585.809998 191.699997,-588.72998 193.649994,-590.679993 196.570007,-590.679993 199.490005,-591.650024 202.410004,-592.630005 205.330002,-593.599976 208.25,-595.549988 211.169998,-596.52002 214.080002,-599.440002 216.029999,-601.380005 217.979996,-604.299988 219.919998,-607.219971 221.869995,-610.140015 222.839996,-613.059998 224.789993,-615.97998 227.710007,-618.900024 227.710007,-621.820007 229.649994,-624.73999 232.570007,-627.659973 235.490005,-629.599976 238.410004,-632.52002 240.360001,-634.469971 243.279999,-637.390015 244.25,-640.309998 245.220001,-649.070007 267.609985,-648.090027 270.529999,-647.119995 273.440002,-647.119995 276.359985,-648.090027 279.279999,-651.01001 277.339996,-653.929993 277.339996,-655.880005 280.26001,-658.799988 282.200012,-661.719971 285.119995,-662.690002 288.040009,-665.609985 289.98999,-668.530029 290.959991,-671.450012 291.929993,-674.369995 291.929993,-677.289978 293.880005,-680.210022 296.799988,-687.98999 304.579987,-686.039978 307.5,-686.039978 310.420013,-686.039978 313.339996,-687.02002 316.26001,-687.98999 318.209991,-690.909973 319.179993,-692.859985 321.130005,-694.799988 324.049988,-696.75 326.970001,-699.669983 328.910004,-701.609985 329.890015,-703.559998 332.799988,-706.47998 333.779999,-709.400024 336.700012,-712.320007 336.700012,-715.23999 336.700012,-718.159973 338.640015,-720.099976 341.559998,-723.02002 342.540009,-725.940002 343.51001,-728.859985 344.480011,-731.780029 343.51001,-734.700012 343.51001,-737.619995 342.540009,-740.539978 340.589996,-741.51001 337.670013,-744.429993 334.75,-747.349976 334.75,-749.299988 331.829987,-748.320007 328.910004,-749.299988 325.98999,-752.219971 323.070007,-755.140015 322.100006,-757.080017 321.130005,-756.109985 318.209991,-758.059998 315.290009,-769.72998 310.420013,-772.650024 310.420013,-775.570007 311.399994,-774.599976 308.480011,-776.539978 305.559998,-779.460022 303.609985,-782.380005 302.640015,-781.409973 299.720001,-784.330017 297.769989,-786.280029 296.799988,-787.25 293.880005,-788.219971 290.959991,-790.169983 288.040009,-790.169983 285.119995,-790.169983 282.200012,-787.25 284.149994,-784.330017 283.179993,-781.409973 282.200012,-780.440002 279.279999,-779.460022 278.309998,-778.48999 281.230011,-776.539978 284.149994,-773.630005 283.179993,-770.710022 282.200012,-770.710022 285.119995,-773.630005 285.119995,-776.539978 286.100006,-777.52002 289.01001,-775.570007 291.929993,-774.599976 294.850006,-772.650024 297.769989,-770.710022 300.690002,-767.789978 302.640015,-766.809998 305.559998,-757.080017 313.339996,-754.159973 315.290009,-751.23999 316.26001,-748.320007 318.209991,-745.400024 320.149994,-742.48999 321.130005,-739.570007 323.070007,-736.650024 323.070007,-733.72998 321.130005,-731.780029 320.149994,-733.72998 323.070007,-733.72998 325.98999,-733.72998 328.910004,-732.75 331.829987,-729.840027 334.75,-726.919983 336.700012,-724 336.700012,-721.080017 336.700012,-718.159973 336.700012,-715.23999 335.720001,-712.320007 332.799988,-710.369995 329.890015,-710.369995 326.970001,-709.400024 324.049988,-706.47998 323.070007,-703.559998 325.019989,-700.640015 325.019989,-698.700012 322.100006,-698.700012 319.179993,-698.700012 316.26001,-696.75 313.339996,-694.799988 310.420013,-692.859985 307.5,-689.940002 304.579987,-684.099976 295.829987,-683.130005 292.910004,-681.179993 289.98999,-678.26001 288.040009,-675.340027 286.100006,-672.419983 283.179993,-669.5 283.179993,-666.580017 281.230011,-663.659973 279.279999,-660.73999 278.309998,-658.799988 275.390015,-656.849976 272.470001,-653.929993 269.549988,-652.960022 266.630005,-643.22998 245.220001,-642.25 242.309998,-642.25 239.389999,-640.309998 236.470001,-640.309998 233.550003,-639.340027 230.630005,-639.340027 227.710007,-636.419983 228.679993,-633.5 229.649994,-630.580017 229.649994,-627.659973 226.740005,-624.73999 223.820007,-621.820007 221.869995,-620.849976 218.949997,-619.869995 216.029999,-617.929993 213.110001,-615.01001 215.059998,-612.090027 216.029999,-609.169983 215.059998,-606.25 215.059998,-603.330017 213.110001,-601.380005 210.190002,-598.460022 207.270004,-596.52002 204.350006,-595.549988 201.429993,-593.599976 198.520004,-593.599976 195.600006,-592.630005 192.679993,-589.710022 189.759995,-589.710022 186.839996,-586.789978 183.919998,-585.809998 181,-582.890015 180.029999,-582.890015 180.029999))'
p76
tp77
a(g1
(g5
S'\x00\x00\x00\x00\x00\x90\x9b@'
p78
tp79
Rp80
S'POLYGON((-503.100006 181,-501.160004 182.949997,-502.130005 185.869995,-503.100006 188.789993,-503.100006 191.710007,-505.049988 194.619995,-507 197.539993,-507.970001 200.460007,-510.890015 203.380005,-513.809998 205.330002,-515.76001 208.25,-517.700012 210.190002,-520.619995 212.139999,-523.539978 214.089996,-526.460022 215.059998,-529.380005 216.029999,-532.299988 217.009995,-535.219971 217.979996,-538.140015 219.929993,-541.059998 220.899994,-543.97998 221.869995,-546.900024 222.850006,-549.809998 225.759995,-552.72998 228.679993,-555.650024 230.630005,-558.570007 231.600006,-561.48999 232.580002,-564.409973 234.520004,-565.380005 237.440002,-567.330017 240.360001,-568.299988 243.279999,-569.280029 246.199997,-572.200012 249.119995,-573.169983 252.039993,-576.090027 253.990005,-579.01001 255.929993,-581.929993 258.850006,-583.869995 260.799988,-585.820007 263.720001,-586.789978 266.640015,-587.77002 268.579987,-590.690002 268.579987,-593.609985 268.579987,-596.52002 269.559998,-599.440002 270.529999,-602.359985 271.5,-605.280029 271.5,-608.200012 271.5,-611.119995 272.470001,-618.909973 287.070007,-619.880005 289.98999,-620.849976 292.910004,-622.799988 295.829987,-623.77002 298.75,-624.75 301.670013,-627.659973 301.670013,-630.580017 302.640015,-633.5 305.559998,-636.419983 307.51001,-639.340027 308.480011,-642.26001 308.480011,-645.179993 309.450012,-648.099976 311.399994,-651.02002 313.350006,-653.940002 313.350006,-656.859985 314.320007,-659.780029 315.290009,-662.700012 315.290009,-665.619995 315.290009,-668.539978 316.269989,-671.460022 316.269989,-674.369995 315.290009,-677.289978 315.290009,-680.210022 316.269989,-683.130005 316.269989,-684.109985 313.350006,-687.030029 310.429993,-689.940002 308.480011,-692.859985 306.529999,-695.780029 306.529999,-698.700012 303.609985,-701.619995 302.640015,-703.570007 301.670013,-706.48999 299.720001,-708.429993 296.799988,-709.409973 293.880005,-712.330017 290.959991,-715.25 289.98999,-717.190002 289.019989,-719.140015 286.100006,-720.109985 283.179993,-723.030029 280.26001,-725.950012 278.309998,-728.869995 278.309998,-728.869995 275.390015,-731.789978 272.470001,-733.73999 269.559998,-733.73999 266.640015,-734.710022 263.720001,-735.679993 260.799988,-735.679993 257.880005,-735.679993 254.960007,-735.679993 252.039993,-736.650024 249.119995,-738.599976 246.199997,-737.630005 244.25,-735.679993 241.330002,-734.710022 238.419998,-732.76001 235.5,-733.73999 232.580002,-730.820007 230.630005,-728.869995 233.550003,-725.950012 235.5,-723.030029 237.440002,-720.109985 238.419998,-719.140015 241.330002,-720.109985 244.25,-720.109985 247.169998,-718.169983 250.089996,-716.219971 253.009995,-713.299988 254.960007,-713.299988 257.880005,-716.219971 258.850006,-718.169983 261.769989,-717.190002 264.690002,-717.190002 267.609985,-717.190002 270.529999,-716.219971 273.450012,-716.219971 276.369995,-714.27002 279.290009,-712.330017 282.209991,-709.409973 284.149994,-706.48999 287.070007,-703.570007 289.019989,-700.650024 289.98999,-697.72998 290.959991,-694.809998 291.940002,-691.890015 292.910004,-688.969971 294.859985,-686.049988 295.829987,-683.130005 296.799988,-680.210022 296.799988,-677.289978 296.799988,-674.369995 296.799988,-671.460022 297.779999,-671.460022 300.700012,-669.51001 303.609985,-669.51001 306.529999,-666.590027 309.450012,-663.669983 310.429993,-660.75 311.399994,-657.830017 309.450012,-656.859985 306.529999,-653.940002 303.609985,-651.02002 300.700012,-648.099976 298.75,-646.150024 301.670013,-643.22998 301.670013,-641.289978 298.75,-639.340027 295.829987,-636.419983 293.880005,-633.5 293.880005,-630.580017 292.910004,-627.659973 291.940002,-624.75 289.98999,-621.830017 287.070007,-613.070007 271.5,-611.119995 268.579987,-610.150024 266.640015,-607.22998 263.720001,-604.309998 260.799988,-601.390015 260.799988,-598.469971 260.799988,-595.549988 259.820007,-592.630005 258.850006,-589.710022 256.899994,-586.789978 254.960007,-583.869995 252.039993,-581.929993 249.119995,-579.97998 246.199997,-578.039978 243.279999,-576.090027 240.360001,-573.169983 238.419998,-571.219971 235.5,-568.299988 232.580002,-567.330017 229.660004,-566.359985 226.740005,-565.380005 223.820007,-563.440002 220.899994,-560.52002 217.979996,-557.599976 215.059998,-554.679993 212.139999,-551.76001 210.190002,-548.840027 212.139999,-545.919983 211.169998,-543 208.25,-540.080017 205.330002,-538.140015 202.410004,-536.190002 199.490005,-533.27002 201.440002,-530.349976 203.380005,-527.429993 202.410004,-524.51001 200.460007,-521.590027 199.490005,-518.669983 196.570007,-515.76001 193.649994,-512.840027 190.729996,-510.890015 187.809998,-507.970001 184.889999,-505.049988 182.949997,-503.100006 181,-503.100006 181))'
p81
tp82
a(g1
(g5
S'\x00\x00\x00\x00\x00\x90\x9b@'
p83
tp84
Rp85
S'POLYGON((-412.609985 193.649994,-410.660004 195.600006,-410.660004 198.520004,-411.640015 201.440002,-412.609985 204.360001,-411.640015 207.279999,-414.559998 208.25,-416.5 211.169998,-417.470001 214.089996,-418.450012 217.009995,-420.390015 219.929993,-422.339996 221.869995,-425.26001 224.789993,-428.179993 224.789993,-431.100006 225.770004,-434.019989 226.740005,-436.940002 227.710007,-439.859985 228.690002,-441.799988 230.630005,-443.75 233.550003,-446.670013 235.5,-449.589996 236.470001,-452.51001 236.470001,-455.429993 237.440002,-458.350006 238.419998,-461.269989 239.389999,-464.179993 242.309998,-467.100006 243.279999,-470.019989 245.229996,-472.940002 246.199997,-475.859985 249.119995,-478.779999 251.070007,-481.700012 253.990005,-483.649994 256.910004,-485.589996 259.829987,-487.540009 262.75,-489.48999 265.670013,-492.410004 268.579987,-495.329987 267.609985,-498.23999 266.640015,-501.160004 267.609985,-504.079987 270.529999,-506.029999 273.450012,-507.980011 276.369995,-510.899994 278.320007,-513.809998 278.320007,-516.72998 280.26001,-519.650024 282.209991,-522.570007 282.209991,-539.119995 306.540009,-541.059998 309.459991,-543.97998 310.429993,-546.900024 311.399994,-549.820007 311.399994,-552.73999 314.320007,-554.690002 315.299988,-557.609985 318.209991,-559.549988 320.160004,-562.469971 322.109985,-565.390015 323.079987,-568.309998 326,-571.22998 327.950012,-574.150024 328.920013,-577.070007 328.920013,-579.98999 329.890015,-582.909973 330.869995,-585.830017 329.890015,-588.75 329.890015,-591.669983 330.869995,-594.580017 329.890015,-597.5 328.920013,-600.419983 328.920013,-603.340027 329.890015,-606.26001 329.890015,-608.210022 326.970001,-609.179993 324.049988,-612.099976 322.109985,-615.02002 322.109985,-617.940002 320.160004,-620.859985 319.190002,-623.780029 318.209991,-626.700012 319.190002,-629.619995 321.130005,-629.619995 318.209991,-632.539978 315.299988,-634.47998 312.380005,-637.400024 312.380005,-640.320007 310.429993,-643.23999 310.429993,-646.159973 311.399994,-649.080017 312.380005,-651.030029 309.459991,-649.080017 306.540009,-648.109985 303.619995,-648.109985 300.700012,-651.030029 297.779999,-652 294.859985,-652.969971 291.940002,-652 289.019989,-652.969971 286.100006,-652 283.179993,-653.950012 280.26001,-656.869995 278.320007,-657.840027 275.399994,-657.840027 272.480011,-658.809998 269.559998,-660.76001 266.640015,-663.679993 263.720001,-666.599976 261.769989,-667.570007 258.850006,-666.599976 255.929993,-666.599976 253.009995,-667.570007 250.100006,-667.570007 247.179993,-664.650024 245.229996,-663.679993 242.309998,-663.679993 239.389999,-664.650024 236.470001,-665.619995 233.550003,-664.650024 230.630005,-663.679993 227.710007,-660.76001 225.770004,-657.840027 225.770004,-654.919983 226.740005,-652.969971 228.690002,-652.969971 231.610001,-654.919983 234.529999,-655.890015 237.440002,-654.919983 240.360001,-656.869995 243.279999,-657.840027 246.199997,-658.809998 249.119995,-659.780029 252.039993,-658.809998 254.960007,-657.840027 257.880005,-657.840027 260.799988,-657.840027 263.720001,-657.840027 266.640015,-655.890015 269.559998,-654.919983 272.480011,-653.950012 275.399994,-652 278.320007,-649.080017 278.320007,-646.159973 277.339996,-644.210022 279.290009,-644.210022 282.209991,-644.210022 285.130005,-642.27002 288.049988,-639.349976 289.98999,-636.429993 291.940002,-633.51001 292.910004,-632.539978 295.829987,-630.590027 298.75,-627.669983 301.670013,-625.72998 304.589996,-623.780029 307.51001,-620.859985 308.480011,-617.940002 308.480011,-615.02002 307.51001,-614.049988 309.459991,-611.130005 311.399994,-608.210022 313.350006,-605.289978 314.320007,-603.340027 316.269989,-600.419983 319.190002,-597.5 320.160004,-594.580017 321.130005,-591.669983 320.160004,-588.75 320.160004,-585.830017 318.209991,-586.799988 315.299988,-584.849976 314.320007,-581.929993 313.350006,-579.01001 312.380005,-576.099976 312.380005,-573.179993 311.399994,-572.200012 314.320007,-569.280029 317.23999,-566.359985 317.23999,-563.440002 317.23999,-560.530029 316.269989,-557.609985 313.350006,-554.690002 310.429993,-551.77002 308.480011,-548.849976 305.559998,-546.900024 302.640015,-544.960022 301.670013,-542.039978 303.619995,-524.52002 280.26001,-523.549988 277.339996,-522.570007 274.420013,-521.599976 271.5,-521.599976 268.579987,-521.599976 265.670013,-519.650024 263.720001,-516.72998 265.670013,-515.76001 267.609985,-514.789978 270.529999,-511.869995 271.5,-508.950012 269.559998,-506.029999 268.579987,-503.109985 265.670013,-501.160004 262.75,-498.23999 259.829987,-496.299988 256.910004,-495.329987 253.990005,-492.410004 253.990005,-489.48999 255.929993,-486.570007 253.990005,-484.619995 251.070007,-481.700012 250.100006,-480.730011 247.179993,-477.809998 245.229996,-474.890015 244.259995,-473.920013 241.339996,-472.940002 238.419998,-474.890015 235.5,-476.839996 234.529999,-474.890015 231.610001,-472.940002 228.690002,-470.019989 227.710007,-467.100006 225.770004,-464.179993 226.740005,-461.269989 226.740005,-458.350006 224.789993,-455.429993 223.820007,-452.51001 221.869995,-449.589996 222.850006,-446.670013 220.899994,-444.720001 217.979996,-444.720001 215.059998,-441.799988 212.139999,-439.859985 210.199997,-439.859985 213.119995,-437.910004 216.039993,-434.98999 217.009995,-432.070007 215.059998,-429.149994 212.139999,-427.209991 209.220001,-425.26001 206.300003,-422.339996 204.360001,-419.420013 202.410004,-417.470001 199.490005,-418.450012 196.570007,-415.529999 194.630005,-412.609985 193.649994,-412.609985 193.649994))'
p86
tp87
a(g1
(g5
S'\x00\x00\x00\x00\x00\x90\x9b@'
p88
tp89
Rp90
S'POLYGON((-176.139999 110.940002,-173.220001 113.860001,-172.25 116.779999,-172.25 119.699997,-171.279999 122.620003,-172.25 125.540001,-173.220001 128.460007,-174.199997 131.380005,-176.139999 134.300003,-177.119995 137.220001,-179.059998 140.139999,-181.009995 143.059998,-182.960007 145.970001,-183.929993 148.889999,-186.850006 151.809998,-187.820007 154.729996,-185.869995 157.649994,-182.960007 156.679993,-180.039993 154.729996,-180.039993 156.679993,-182.960007 158.630005,-185.869995 159.600006,-188.789993 159.600006,-191.710007 161.550003,-192.690002 164.460007,-195.610001 167.380005,-197.550003 169.330002,-200.470001 172.25,-202.419998 175.169998,-204.360001 178.089996,-207.279999 179.059998,-210.199997 181.979996,-212.149994 184.899994,-214.100006 187.820007,-215.070007 190.740005,-216.039993 193.660004,-217.990005 196.580002,-219.940002 196.580002,-222.850006 197.550003,-223.830002 200.470001,-223.830002 203.389999,-226.75 203.389999,-228.690002 206.309998,-228.690002 209.229996,-228.690002 212.149994,-227.720001 215.070007,-230.639999 217.990005,-233.559998 219.940002,-236.479996 220.910004,-239.399994 223.830002,-242.320007 226.75,-245.240005 229.669998,-248.160004 229.669998,-251.080002 230.639999,-254 232.589996,-256.920013 233.559998,-258.859985 236.479996,-261.779999 238.429993,-264.700012 238.429993,-267.619995 239.399994,-270.540009 240.369995,-273.459991 241.339996,-276.380005 243.289993,-279.299988 245.240005,-282.220001 245.240005,-285.140015 246.210007,-288.059998 248.160004,-290.980011 249.130005,-293.899994 251.080002,-294.869995 254,-296.820007 256.920013,-299.730011 258.859985,-302.649994 257.890015,-305.570007 257.890015,-308.48999 257.890015,-311.410004 259.839996,-314.329987 262.75,-317.25 262.75,-320.170013 264.700012,-323.089996 265.670013,-326.01001 266.649994,-328.929993 268.589996,-331.850006 270.540009,-334.769989 272.48999,-337.690002 274.429993,-388.290009 306.549988,-389.269989 309.470001,-392.190002 312.390015,-395.100006 313.359985,-398.019989 312.390015,-400.940002 315.309998,-399.970001 318.220001,-397.049988 319.200012,-394.130005 321.140015,-395.100006 323.089996,-397.049988 326.01001,-397.049988 328.929993,-397.049988 331.850006,-399 334.769989,-400.940002 337.690002,-399.970001 340.609985,-402.890015 341.579987,-405.809998 340.609985,-408.730011 340.609985,-411.649994 339.630005,-414.570007 340.609985,-417.48999 337.690002,-418.459991 334.769989,-421.380005 332.820007,-424.299988 333.799988,-425.269989 336.720001,-427.220001 339.630005,-430.140015 340.609985,-433.059998 338.660004,-435.980011 340.609985,-437.920013 343.529999,-436.950012 346.450012,-438.899994 348.390015,-441.820007 345.470001,-444.73999 344.5,-447.660004 345.470001,-450.579987 344.5,-453.48999 343.529999,-456.410004 340.609985,-459.329987 338.660004,-462.25 336.720001,-465.170013 335.73999,-467.119995 338.660004,-468.089996 335.73999,-468.089996 332.820007,-468.089996 329.899994,-468.089996 326.980011,-469.070007 324.059998,-471.980011 323.089996,-474.899994 322.119995,-476.850006 320.170013,-479.769989 318.220001,-482.690002 316.279999,-483.660004 313.359985,-484.640015 310.440002,-486.579987 307.519989,-487.559998 304.600006,-489.5 301.679993,-491.450012 298.76001,-492.420013 295.839996,-493.390015 292.920013,-494.369995 290,-497.290009 287.079987,-499.230011 286.109985,-502.149994 284.160004,-503.130005 281.23999,-503.130005 278.329987,-505.070007 275.410004,-507.98999 274.429993,-507.98999 271.51001,-507.019989 268.589996,-507.98999 265.670013,-509.940002 262.75,-511.880005 260.809998,-511.880005 257.890015,-511.880005 254.970001,-511.880005 252.050003,-511.880005 249.130005,-509.940002 247.179993,-507.98999 244.259995,-507.98999 241.339996,-507.98999 238.429993,-507.019989 235.509995,-505.070007 232.589996,-505.070007 229.669998,-503.130005 227.720001,-500.209991 224.800003,-497.290009 222.850006,-494.369995 222.850006,-491.450012 222.850006,-493.390015 224.800003,-494.369995 227.720001,-495.339996 230.639999,-495.339996 233.559998,-494.369995 236.479996,-494.369995 239.399994,-497.290009 240.369995,-500.209991 243.289993,-500.209991 246.210007,-497.290009 249.130005,-495.339996 252.050003,-495.339996 254.970001,-496.309998 257.890015,-495.339996 260.809998,-493.390015 262.75,-491.450012 265.670013,-490.480011 268.589996,-490.480011 271.51001,-487.559998 274.429993,-487.559998 277.350006,-485.609985 280.269989,-482.690002 281.23999,-479.769989 280.269989,-477.820007 282.220001,-474.899994 284.160004,-471.980011 285.140015,-469.070007 285.140015,-469.070007 288.059998,-469.070007 290.980011,-468.089996 293.899994,-467.119995 296.820007,-466.149994 299.730011,-463.230011 300.709991,-460.309998 303.630005,-461.279999 306.549988,-461.279999 309.470001,-464.200012 310.440002,-466.149994 307.519989,-469.070007 304.600006,-471.980011 304.600006,-473.929993 307.519989,-473.929993 310.440002,-473.929993 313.359985,-471.01001 316.279999,-468.089996 317.25,-465.170013 319.200012,-462.25 319.200012,-459.329987 321.140015,-456.410004 321.140015,-454.470001 323.089996,-452.519989 326.01001,-450.579987 327.959991,-447.660004 329.899994,-444.73999 328.929993,-441.820007 326.980011,-442.790009 324.059998,-442.790009 321.140015,-442.790009 319.200012,-439.869995 317.25,-436.950012 314.329987,-434.029999 312.390015,-432.089996 312.390015,-429.170013 311.410004,-426.25 311.410004,-423.329987 314.329987,-420.410004 315.309998,-417.48999 316.279999,-414.570007 316.279999,-411.649994 316.279999,-408.730011 313.359985,-406.779999 313.359985,-403.859985 312.390015,-400.940002 310.440002,-399 307.519989,-397.049988 304.600006,-395.100006 302.649994,-392.190002 302.649994,-338.660004 273.459991,-338.660004 270.540009,-336.720001 267.619995,-333.799988 264.700012,-330.880005 262.75,-329.899994 259.839996,-327.959991 256.920013,-327.959991 254,-327.959991 252.050003,-325.040009 250.100006,-323.089996 251.080002,-320.170013 252.050003,-317.25 250.100006,-314.329987 249.130005,-311.410004 249.130005,-308.48999 247.179993,-305.570007 247.179993,-302.649994 245.240005,-299.730011 243.289993,-296.820007 243.289993,-293.899994 243.289993,-290.980011 240.369995,-288.059998 238.429993,-285.140015 236.479996,-282.220001 234.529999,-280.269989 231.610001,-277.350006 230.639999,-274.429993 228.690002,-271.51001 225.770004,-268.589996 223.830002,-266.649994 220.910004,-267.619995 217.990005,-264.700012 217.020004,-264.700012 219.940002,-263.730011 222.850006,-260.809998 224.800003,-257.890015 225.770004,-254.970001 223.830002,-252.050003 221.880005,-249.130005 221.880005,-247.179993 218.960007,-244.259995 217.020004,-241.339996 215.070007,-238.429993 213.119995,-235.509995 210.199997,-232.589996 207.279999,-231.610001 204.360001,-228.690002 201.449997,-228.690002 198.529999,-226.75 195.610001,-224.800003 192.690002,-221.880005 190.740005,-218.960007 188.789993,-218.960007 185.869995,-216.039993 182.960007,-216.039993 180.039993,-214.100006 177.119995,-211.179993 174.199997,-210.199997 171.279999,-208.259995 168.360001,-207.279999 165.440002,-205.339996 162.520004,-204.360001 159.600006,-201.449997 156.679993,-199.5 153.759995,-198.529999 150.839996,-196.580002 147.919998,-195.610001 145,-195.610001 142.080002,-194.630005 139.160004,-192.690002 136.240005,-191.710007 133.320007,-189.770004 130.399994,-186.850006 129.429993,-183.929993 127.480003,-183.929993 124.57,-182.960007 121.650002,-181.009995 118.730003,-179.059998 115.809998,-177.119995 112.889999,-176.139999 110.940002,-176.139999 110.940002))'
p91
tp92
a(g1
(g5
S'\x00\x00\x00\x00\x00\x90\x9b@'
p93
tp94
Rp95
S'POLYGON((-5.84000015 378.570007,-2.92000008 379.549988,0 381.48999,2.92000008 383.440002,2.92000008 386.359985,4.86999989 389.279999,7.78999996 389.279999,10.71 389.279999,13.6199999 391.220001,16.5400009 392.200012,19.4599991 393.170013,22.3799992 396.089996,24.3299999 397.059998,21.4099998 397.059998,18.4899998 397.059998,15.5699997 396.089996,12.6499996 396.089996,9.72999954 397.059998,6.80999994 395.119995,3.8900001 394.140015,0.970000029 394.140015,-1.95000005 394.140015,-4.86999989 393.170013,-7.78999996 394.140015,-10.71 395.119995,-13.6199999 396.089996,-16.5400009 396.089996,-15.5699997 393.170013,-13.6199999 390.25,-10.71 387.329987,-8.76000023 385.390015,-6.80999994 382.470001,-5.84000015 379.549988,-5.84000015 378.570007,-5.84000015 378.570007))'
p96
tp97
a(g1
(g5
S'\x00\x00\x00\x00\x00t\xaa@'
p98
tp99
Rp100
S'POLYGON((72.4400024 652.960022,74.4499969 653.969971,77.4700012 656.98999,80.4899979 657.98999,83.5100021 660,85.5199966 663.02002,88.5400009 664.030029,91.5599976 663.02002,93.5699997 665.030029,93.5699997 667.049988,90.5500031 668.049988,87.5299988 666.039978,84.5100021 666.039978,81.4899979 666.039978,78.4800034 666.039978,75.4599991 666.039978,72.4400024 666.039978,69.4199982 666.039978,66.4000015 667.049988,63.3800011 668.049988,60.3699989 668.049988,57.3499985 668.049988,54.3300018 669.059998,51.3100014 667.049988,48.2900009 668.049988,45.2700005 670.059998,42.2599983 672.080017,39.2400017 673.080017,36.2200012 674.090027,34.2099991 676.099976,35.2099991 673.080017,35.2099991 670.059998,37.2299995 667.049988,38.2299995 664.030029,40.2400017 661.01001,43.2599983 662.02002,46.2799988 662.02002,49.2999992 663.02002,52.3199997 663.02002,54.3300018 660,57.3499985 657.98999,60.3699989 655.97998,63.3800011 654.969971,66.4000015 655.97998,69.4199982 654.969971,72.4400024 652.960022,72.4400024 652.960022))'
p101
tp102
a(g1
(g5
S'\x00\x00\x00\x00\x00t\xaa@'
p103
tp104
Rp105
S'POLYGON((224.360001 648.919983,227.369995 648.919983,229.389999 650.940002,232.410004 651.940002,235.419998 650.940002,238.440002 653.950012,240.449997 656.969971,238.440002 659.98999,238.440002 663.01001,238.440002 666.030029,235.419998 669.039978,232.410004 670.049988,229.389999 670.049988,226.369995 670.049988,223.350006 672.059998,221.339996 674.080017,218.320007 674.080017,215.300003 676.090027,214.300003 679.109985,211.279999 679.109985,208.259995 679.109985,206.25 677.090027,204.229996 674.080017,201.220001 672.059998,198.199997 671.059998,190.149994 681.119995,188.139999 684.140015,185.119995 685.140015,183.110001 688.159973,181.089996 691.179993,180.089996 694.200012,177.070007 694.200012,174.050003 694.200012,171.029999 694.200012,168.020004 694.200012,165 694.200012,161.979996 695.200012,158.960007 696.210022,155.940002 698.219971,152.919998 698.219971,149.910004 699.22998,146.889999 699.22998,143.869995 698.219971,140.850006 697.219971,139.850006 695.200012,142.860001 692.179993,143.869995 689.169983,146.889999 687.150024,149.910004 687.150024,152.919998 686.150024,155.940002 685.140015,158.960007 684.140015,161.979996 683.130005,165 683.130005,168.020004 682.119995,171.029999 681.119995,174.050003 682.119995,177.070007 681.119995,180.089996 679.109985,181.089996 676.090027,184.110001 675.080017,187.130005 676.090027,197.190002 669.039978,198.199997 666.030029,200.210007 663.01001,203.229996 664.01001,206.25 664.01001,209.270004 663.01001,212.279999 662,215.300003 661,218.320007 661,221.339996 661,224.360001 659.98999,225.360001 656.969971,225.360001 653.950012,224.360001 650.940002,224.360001 648.919983,224.360001 648.919983))'
p106
tp107
a(g1
(g5
S'\x00\x00\x00\x00\x00t\xaa@'
p108
tp109
Rp110
S'POLYGON((294.779999 642.880005,296.790009 644.890015,296.790009 647.909973,296.790009 650.929993,297.799988 653.950012,296.790009 656.969971,293.769989 659.97998,290.75 660.98999,287.73999 662,285.720001 665.01001,283.709991 668.030029,281.700012 665.01001,278.679993 664.01001,275.660004 666.02002,272.649994 668.030029,269.630005 666.02002,266.609985 666.02002,263.589996 665.01001,260.570007 668.030029,258.559998 671.049988,256.549988 674.070007,253.529999 675.070007,250.509995 674.070007,249.509995 671.049988,239.449997 675.070007,239.449997 678.090027,239.449997 681.109985,237.429993 682.119995,234.410004 684.130005,231.399994 686.140015,228.380005 686.140015,225.360001 689.159973,222.339996 692.179993,223.350006 695.200012,225.360001 697.210022,224.350006 700.22998,222.339996 703.23999,221.339996 700.22998,219.320007 697.210022,216.309998 696.200012,213.289993 697.210022,210.270004 698.210022,207.25 699.219971,204.229996 700.22998,201.210007 700.22998,198.199997 700.22998,195.179993 702.23999,192.160004 703.23999,189.139999 704.25,186.119995 703.23999,183.110001 702.23999,180.089996 701.22998,183.110001 699.219971,182.100006 696.200012,182.100006 693.179993,185.119995 692.179993,188.139999 691.169983,191.149994 691.169983,194.169998 692.179993,197.190002 692.179993,200.210007 690.169983,203.229996 689.159973,206.240005 688.150024,209.259995 686.140015,212.279999 685.140015,215.300003 685.140015,218.320007 685.140015,221.339996 685.140015,224.350006 683.119995,227.369995 681.109985,230.389999 679.099976,232.399994 678.090027,234.410004 675.070007,236.429993 673.059998,248.5 669.039978,248.5 666.02002,247.490005 663,245.479996 659.97998,244.479996 656.969971,247.490005 657.969971,250.509995 655.960022,252.520004 655.960022,255.539993 656.969971,258.559998 654.950012,260.570007 652.940002,263.589996 651.929993,266.609985 652.940002,269.630005 653.950012,272.649994 654.950012,275.660004 654.950012,278.679993 653.950012,281.700012 651.929993,284.720001 650.929993,287.73999 649.919983,290.75 647.909973,293.769989 644.890015,294.779999 642.880005,294.779999 642.880005))'
p111
tp112
a(g1
(g5
S'\x00\x00\x00\x00\x00t\xaa@'
p113
tp114
Rp115
S'POLYGON((329.98999 671.039978,333.01001 672.049988,336.019989 674.059998,336.019989 677.080017,337.029999 680.099976,335.019989 682.109985,332 684.119995,328.980011 686.130005,326.970001 689.150024,323.950012 691.159973,321.940002 694.179993,319.929993 696.190002,316.910004 699.210022,316.910004 702.22998,313.890015 703.23999,310.869995 700.219971,311.880005 697.200012,312.890015 694.179993,310.869995 691.159973,307.850006 690.159973,304.839996 690.159973,302.820007 693.179993,301.820007 696.190002,298.799988 697.200012,295.779999 699.210022,294.779999 702.22998,297.790009 704.23999,298.799988 706.26001,296.790009 709.27002,293.769989 711.289978,290.75 710.280029,287.730011 711.289978,284.720001 711.289978,281.700012 711.289978,278.679993 710.280029,275.660004 708.27002,272.640015 707.26001,271.640015 704.23999,270.630005 701.22998,273.649994 700.219971,276.670013 702.22998,279.690002 701.22998,282.700012 700.219971,285.720001 699.210022,288.73999 698.210022,291.76001 695.190002,294.779999 693.179993,297.790009 691.159973,300.809998 690.159973,303.829987 689.150024,304.839996 686.130005,307.850006 685.130005,309.869995 682.109985,312.890015 680.099976,313.890015 677.080017,316.910004 678.090027,319.929993 679.090027,322.950012 678.090027,325.959991 676.070007,328.980011 673.059998,329.98999 671.039978,329.98999 671.039978))'
p116
tp117
a(g1
(g5
S'\x00\x00\x00\x00\x00t\xaa@'
p118
tp119
Rp120
S'POLYGON((352.119995 701.219971,355.140015 701.219971,358.149994 703.22998,361.170013 705.23999,362.179993 708.26001,362.179993 711.280029,362.179993 714.299988,365.200012 717.309998,368.209991 717.309998,370.230011 719.330017,371.230011 722.349976,372.23999 725.359985,370.230011 726.369995,367.209991 726.369995,364.190002 727.380005,362.179993 730.390015,360.170013 732.409973,358.149994 735.419983,356.140015 738.440002,353.119995 741.460022,350.109985 743.469971,349.100006 746.48999,346.079987 749.51001,343.059998 750.51001,340.049988 752.530029,338.029999 755.539978,335.019989 757.559998,332 759.570007,328.980011 762.590027,327.970001 765.609985,326.970001 768.619995,325.959991 770.640015,324.950012 769.630005,322.940002 766.609985,321.940002 763.590027,318.920013 761.580017,315.899994 758.559998,312.880005 757.559998,310.869995 760.570007,308.859985 757.559998,307.850006 754.539978,306.850006 751.52002,304.829987 748.5,305.839996 745.47998,306.850006 742.469971,308.859985 739.450012,308.859985 736.429993,309.859985 733.409973,309.859985 730.390015,309.859985 727.380005,312.880005 728.380005,315.899994 730.390015,313.890015 733.409973,315.899994 736.429993,318.920013 737.440002,319.920013 740.450012,322.940002 742.469971,325.959991 741.460022,327.970001 738.440002,328.980011 735.419983,330.98999 732.409973,334.01001 732.409973,337.029999 730.390015,340.049988 733.409973,343.059998 733.409973,346.079987 731.400024,347.089996 728.380005,347.089996 725.359985,344.070007 723.349976,342.059998 722.349976,342.059998 719.330017,340.049988 716.309998,342.059998 713.289978,344.070007 710.27002,345.079987 707.25,347.089996 704.23999,350.109985 702.219971,352.119995 701.219971,352.119995 701.219971))'
p121
tp122
a(g1
(g5
S'\x00\x00\x00\x00\x00\xb9\xb4@'
p123
tp124
Rp125
S'POLYGON((-687.630005 459.070007,-684.700012 460.049988,-681.77002 462,-678.840027 464.929993,-675.909973 464.929993,-674.929993 466.880005,-676.880005 469.809998,-679.809998 471.769989,-682.73999 470.790009,-685.669983 469.809998,-688.599976 468.839996,-689.580017 466.880005,-690.559998 463.950012,-725.719971 483.48999,-725.719971 486.420013,-728.650024 487.390015,-731.580017 489.350006,-734.51001 490.320007,-737.440002 490.320007,-740.369995 491.299988,-743.299988 491.299988,-746.22998 492.279999,-749.159973 493.25,-752.090027 493.25,-755.02002 494.230011,-756.97998 496.190002,-759.909973 497.160004,-761.859985 500.089996,-763.809998 498.140015,-761.859985 495.209991,-761.859985 492.279999,-759.909973 489.350006,-756.97998 489.350006,-754.049988 486.420013,-753.070007 483.48999,-751.109985 480.559998,-749.159973 477.630005,-746.22998 474.700012,-744.280029 475.670013,-742.320007 478.600006,-739.390015 481.529999,-736.460022 482.51001,-733.530029 480.559998,-730.599976 481.529999,-727.669983 481.529999,-692.51001 461.019989,-689.580017 460.049988,-687.630005 459.070007,-687.630005 459.070007))'
p126
tp127
a(g1
(g5
S'\x00\x00\x00\x00\x00\xb9\xb4@'
p128
tp129
Rp130
S'POLYGON((-762 450.359985,-759.059998 450.359985,-756.130005 450.359985,-755.159973 451.339996,-758.090027 453.290009,-758.090027 456.220001,-756.130005 459.149994,-755.159973 462.079987,-752.22998 465.01001,-750.27002 465.98999,-750.27002 468.920013,-752.22998 471.850006,-750.27002 474.779999,-747.340027 473.799988,-744.409973 472.829987,-742.460022 469.899994,-739.530029 469.899994,-736.599976 468.920013,-734.640015 468.920013,-736.599976 471.850006,-734.640015 474.779999,-731.710022 474.779999,-728.780029 471.850006,-727.799988 473.799988,-724.869995 475.76001,-721.940002 475.76001,-719.01001 474.779999,-718.030029 475.76001,-718.030029 478.690002,-715.099976 481.619995,-713.150024 484.549988,-712.169983 487.480011,-709.23999 488.459991,-706.309998 488.459991,-703.380005 485.529999,-703.380005 482.600006,-701.429993 482.600006,-701.429993 485.529999,-698.5 487.480011,-695.570007 488.459991,-692.630005 491.390015,-691.659973 494.320007,-688.72998 496.269989,-685.799988 498.230011,-682.869995 499.200012,-668.210022 493.339996,-670.169983 490.410004,-672.119995 487.480011,-673.099976 484.549988,-673.099976 481.619995,-672.119995 478.690002,-669.190002 478.690002,-666.26001 479.670013,-663.330017 477.709991,-663.330017 474.779999,-665.280029 471.850006,-666.26001 468.920013,-669.190002 466.970001,-670.169983 465.01001,-670.169983 462.079987,-667.22998 460.130005,-664.299988 457.200012,-661.369995 454.269989,-659.419983 452.309998,-657.469971 455.23999,-655.51001 458.170013,-653.559998 461.109985,-654.530029 464.040009,-652.580017 466.970001,-649.650024 467.940002,-647.700012 470.869995,-646.719971 473.799988,-645.73999 476.73999,-644.77002 479.670013,-643.789978 482.600006,-640.859985 483.570007,-637.929993 486.5,-635 487.480011,-637.929993 490.410004,-640.859985 492.369995,-643.789978 492.369995,-646.719971 493.339996,-649.650024 492.369995,-652.580017 493.339996,-654.530029 496.269989,-656.48999 498.230011,-658.440002 495.299988,-661.369995 495.299988,-664.299988 494.320007,-667.22998 493.339996,-678.960022 503.109985,-681.890015 503.109985,-684.820007 503.109985,-687.75 503.109985,-690.679993 502.140015,-693.609985 502.140015,-696.539978 504.089996,-699.469971 507.019989,-702.400024 508,-704.359985 510.929993,-704.359985 513.859985,-707.289978 515.809998,-710.219971 515.809998,-713.150024 516.789978,-716.080017 515.809998,-719.01001 515.809998,-721.940002 515.809998,-724.869995 514.840027,-726.830017 511.899994,-729.76001 511.899994,-732.690002 513.859985,-735.619995 513.859985,-738.549988 514.840027,-741.47998 515.809998,-744.409973 515.809998,-747.340027 516.789978,-750.27002 516.789978,-751.25 514.840027,-751.25 511.899994,-754.179993 509.950012,-757.109985 511.899994,-758.090027 511.899994,-760.039978 508.970001,-762 506.040009,-763.950012 503.109985,-765.900024 500.179993,-767.859985 497.25,-769.809998 494.320007,-771.76001 491.390015,-770.789978 489.440002,-768.830017 486.5,-768.830017 483.570007,-766.880005 481.619995,-763.950012 481.619995,-761.02002 480.640015,-758.090027 481.619995,-755.159973 480.640015,-754.179993 477.709991,-755.159973 474.779999,-758.090027 473.799988,-761.02002 473.799988,-761.02002 470.869995,-761.02002 467.940002,-762 465.01001,-764.929993 464.040009,-767.859985 465.01001,-769.809998 467.940002,-769.809998 470.869995,-768.830017 473.799988,-768.830017 475.76001,-770.789978 476.73999,-771.76001 473.799988,-774.700012 472.829987,-777.630005 470.869995,-780.559998 470.869995,-783.48999 470.869995,-785.440002 468.920013,-787.400024 465.98999,-786.419983 463.059998,-785.440002 460.130005,-782.51001 457.200012,-780.559998 456.220001,-777.630005 455.23999,-775.669983 452.309998,-772.73999 452.309998,-769.809998 452.309998,-766.880005 452.309998,-763.950012 451.339996,-762 450.359985,-762 450.359985))'
p131
tp132
a(g1
(g5
S'\x00\x00\x00\x00\x00\xb9\xb4@'
p133
tp134
Rp135
S'POLYGON((-715.23999 444.579987,-715.23999 447.51001,-718.169983 449.470001,-721.099976 450.440002,-724.030029 451.420013,-726.960022 454.350006,-727.940002 457.279999,-730.869995 459.23999,-733.799988 461.190002,-734.780029 464.119995,-736.73999 465.100006,-739.669983 468.029999,-742.599976 469.01001,-743.580017 471.940002,-745.530029 473.890015,-748.460022 476.829987,-748.460022 479.76001,-747.47998 482.690002,-744.549988 485.619995,-746.51001 488.549988,-748.460022 491.480011,-749.440002 494.410004,-744.549988 513.960022,-741.619995 514.929993,-738.690002 515.909973,-735.76001 514.929993,-732.830017 513.960022,-731.849976 511.019989,-729.900024 509.070007,-726.960022 509.070007,-724.030029 508.089996,-721.099976 505.160004,-719.150024 507.119995,-719.150024 510.049988,-716.219971 512,-713.289978 510.049988,-713.289978 507.119995,-712.309998 504.190002,-709.380005 504.190002,-706.450012 504.190002,-703.51001 502.230011,-704.48999 499.299988,-705.469971 496.369995,-708.400024 495.390015,-711.330017 497.350006,-714.26001 498.320007,-717.190002 499.299988,-720.119995 499.299988,-721.099976 497.350006,-720.119995 494.410004,-718.169983 491.480011,-719.150024 488.549988,-722.080017 485.619995,-725.01001 485.619995,-723.059998 482.690002,-721.099976 479.76001,-719.150024 476.829987,-716.219971 473.890015,-715.23999 473.890015,-712.309998 475.850006,-709.380005 473.890015,-709.380005 470.959991,-706.450012 469.98999,-704.48999 467.059998,-701.559998 469.01001,-698.630005 469.01001,-695.700012 467.059998,-694.719971 464.119995,-695.700012 461.190002,-694.719971 459.23999,-691.789978 460.220001,-689.830017 457.279999,-687.880005 455.329987,-684.950012 452.399994,-683.969971 455.329987,-684.950012 458.26001,-683 461.190002,-682.02002 462.170013,-684.950012 464.119995,-685.929993 467.059998,-683 469.98999,-681.039978 470.959991,-683 472.920013,-685.929993 474.869995,-688.859985 475.850006,-690.809998 478.779999,-692.77002 480.730011,-694.719971 483.670013,-694.719971 486.600006,-691.789978 488.549988,-688.859985 486.600006,-687.880005 483.670013,-686.900024 482.690002,-683.969971 481.709991,-681.039978 478.779999,-678.109985 476.829987,-677.130005 473.890015,-675.179993 470.959991,-673.219971 469.01001,-670.289978 466.079987,-670.289978 463.149994,-673.219971 461.190002,-676.159973 461.190002,-679.090027 460.220001,-676.159973 459.23999,-673.219971 458.26001,-670.289978 460.220001,-667.359985 462.170013,-664.429993 461.190002,-661.5 461.190002,-658.570007 461.190002,-655.640015 458.26001,-655.640015 455.329987,-652.700012 457.279999,-649.77002 458.26001,-646.840027 458.26001,-643.909973 455.329987,-640.97998 454.350006,-638.049988 454.350006,-638.049988 456.309998,-640.97998 458.26001,-643.909973 460.220001,-645.869995 462.170013,-647.820007 465.100006,-648.799988 468.029999,-648.799988 470.959991,-649.77002 473.890015,-649.77002 476.829987,-649.77002 479.76001,-648.799988 482.690002,-647.820007 485.619995,-645.869995 488.549988,-642.929993 488.549988,-640 488.549988,-637.070007 487.570007,-636.090027 484.640015,-638.049988 481.709991,-636.090027 480.730011,-633.159973 482.690002,-630.22998 482.690002,-627.299988 481.709991,-624.369995 484.640015,-621.440002 485.619995,-618.51001 487.570007,-615.570007 487.570007,-612.640015 487.570007,-610.690002 489.529999,-609.710022 492.459991,-608.73999 495.390015,-605.799988 498.320007,-602.869995 499.299988,-599.940002 498.320007,-597.01001 497.350006,-594.080017 495.390015,-591.150024 493.440002,-588.219971 491.480011,-585.280029 492.459991,-583.330017 495.390015,-583.330017 498.320007,-581.380005 501.25,-578.450012 504.190002,-577.469971 507.119995,-580.400024 510.049988,-583.330017 509.070007,-584.309998 506.140015,-587.23999 504.190002,-590.169983 502.230011,-593.099976 501.25,-596.030029 501.25,-598.960022 501.25,-601.900024 503.209991,-602.869995 506.140015,-602.869995 509.070007,-602.869995 512,-603.849976 514.929993,-600.919983 516.890015,-598.960022 517.859985,-600.919983 518.840027,-603.849976 518.840027,-606.780029 517.859985,-609.710022 519.820007,-611.669983 522.75,-614.599976 523.72998,-617.530029 523.72998,-620.460022 523.72998,-623.390015 525.679993,-623.390015 528.609985,-625.349976 529.590027,-625.349976 526.659973,-626.320007 523.72998,-623.390015 521.77002,-620.460022 519.820007,-618.51001 516.890015,-616.549988 513.960022,-617.530029 511.019989,-620.460022 510.049988,-622.409973 512.97998,-625.349976 514.929993,-628.280029 514.929993,-631.210022 515.909973,-634.140015 517.859985,-636.090027 520.799988,-637.070007 523.72998,-639.030029 526.659973,-641.960022 528.609985,-644.890015 530.570007,-647.820007 532.52002,-649.77002 535.450012,-651.72998 534.47998,-654.659973 531.539978,-657.590027 530.570007,-660.52002 529.590027,-662.47998 526.659973,-662.47998 524.700012,-663.450012 521.77002,-666.380005 520.799988,-669.320007 520.799988,-672.25 520.799988,-675.179993 519.820007,-678.109985 520.799988,-681.039978 522.75,-683.969971 522.75,-683.969971 519.820007,-686.900024 517.859985,-689.830017 518.840027,-691.789978 521.77002,-693.73999 523.72998,-696.669983 521.77002,-698.630005 518.840027,-699.609985 515.909973,-702.539978 513.960022,-705.469971 515.909973,-708.400024 517.859985,-711.330017 517.859985,-714.26001 516.890015,-717.190002 515.909973,-720.119995 517.859985,-722.080017 520.799988,-722.080017 523.72998,-725.01001 523.72998,-727.940002 523.72998,-728.919983 520.799988,-731.849976 518.840027,-734.780029 518.840027,-737.710022 520.799988,-739.669983 522.75,-742.599976 521.77002,-745.530029 523.72998,-748.460022 523.72998,-747.47998 520.799988,-748.460022 517.859985,-749.440002 514.929993,-750.419983 495.390015,-753.349976 494.410004,-755.299988 492.459991,-758.22998 491.480011,-761.159973 493.440002,-764.090027 494.410004,-767.030029 496.369995,-769.960022 494.410004,-771.909973 491.480011,-773.869995 488.549988,-774.840027 485.619995,-774.840027 482.690002,-774.840027 479.76001,-775.820007 476.829987,-775.820007 473.890015,-774.840027 470.959991,-774.840027 468.029999,-771.909973 468.029999,-768.97998 467.059998,-766.049988 465.100006,-763.119995 464.119995,-760.190002 463.149994,-757.25 464.119995,-754.320007 464.119995,-751.390015 461.190002,-750.419983 459.23999,-747.47998 459.23999,-744.549988 456.309998,-741.619995 455.329987,-739.669983 452.399994,-736.73999 451.420013,-733.799988 450.440002,-730.869995 449.470001,-727.940002 449.470001,-725.01001 449.470001,-722.080017 449.470001,-719.150024 447.51001,-716.219971 445.559998,-715.23999 444.579987,-715.23999 444.579987))'
p136
tp137
a(g1
(g5
S'\x00\x00\x00\x00\x00i\xb6@'
p138
tp139
Rp140
S'POLYGON((-659.400024 -401.369995,-656.440002 -400.390015,-653.469971 -399.399994,-650.5 -398.410004,-648.530029 -396.429993,-648.530029 -393.470001,-645.559998 -391.48999,-642.599976 -393.470001,-640.619995 -396.429993,-637.650024 -397.420013,-634.690002 -398.410004,-631.719971 -398.410004,-628.75 -398.410004,-626.780029 -397.420013,-628.75 -396.429993,-631.719971 -395.440002,-634.690002 -393.470001,-636.659973 -390.5,-638.640015 -387.529999,-641.609985 -385.559998,-644.570007 -385.559998,-647.539978 -387.529999,-650.5 -388.519989,-653.469971 -386.549988,-654.460022 -383.579987,-657.419983 -381.600006,-660.390015 -380.609985,-663.359985 -379.630005,-666.320007 -378.640015,-667.309998 -381.600006,-670.280029 -383.579987,-673.23999 -383.579987,-676.210022 -381.600006,-678.190002 -378.640015,-677.200012 -375.670013,-674.22998 -373.690002,-674.22998 -370.730011,-673.23999 -367.76001,-674.22998 -365.790009,-676.210022 -362.820007,-679.169983 -360.839996,-680.159973 -357.880005,-681.150024 -354.910004,-682.140015 -351.940002,-680.159973 -348.980011,-677.200012 -347.98999,-678.190002 -345.019989,-679.169983 -342.059998,-680.159973 -339.089996,-683.130005 -336.130005,-684.119995 -333.160004,-685.109985 -330.200012,-687.080017 -327.230011,-690.049988 -326.23999,-693.01001 -324.26001,-695.97998 -321.299988,-697.960022 -318.329987,-698.950012 -315.369995,-701.909973 -313.390015,-703.890015 -310.420013,-703.890015 -307.459991,-704.880005 -304.48999,-703.890015 -301.529999,-703.890015 -298.559998,-703.890015 -295.589996,-700.919983 -292.630005,-697.960022 -291.640015,-694.98999 -292.630005,-692.030029 -293.619995,-689.059998 -293.619995,-688.070007 -292.630005,-691.039978 -291.640015,-694 -289.660004,-696.969971 -286.700012,-698.950012 -283.730011,-699.929993 -280.76001,-700.919983 -277.799988,-701.909973 -274.829987,-701.909973 -271.869995,-703.890015 -268.899994,-706.849976 -269.890015,-707.840027 -272.859985,-707.840027 -275.820007,-707.840027 -278.790009,-709.820007 -281.75,-710.809998 -284.720001,-713.780029 -285.709991,-716.73999 -284.720001,-719.710022 -283.730011,-720.700012 -280.76001,-722.669983 -282.73999,-724.650024 -285.709991,-727.619995 -288.670013,-729.590027 -291.640015,-731.570007 -294.609985,-732.559998 -297.570007,-732.559998 -300.540009,-731.570007 -303.5,-731.570007 -306.470001,-730.580017 -309.429993,-731.570007 -312.399994,-734.539978 -315.369995,-732.559998 -318.329987,-730.580017 -321.299988,-729.590027 -324.26001,-731.570007 -327.230011,-734.539978 -328.220001,-733.549988 -331.179993,-730.580017 -330.200012,-728.599976 -333.160004,-726.630005 -336.130005,-726.630005 -339.089996,-726.630005 -342.059998,-726.630005 -345.019989,-724.650024 -347.98999,-725.640015 -350.959991,-723.659973 -352.929993,-722.669983 -355.899994,-721.679993 -358.859985,-718.719971 -361.829987,-717.72998 -364.799988,-715.75 -367.76001,-714.76001 -370.730011,-711.799988 -372.709991,-710.809998 -375.670013,-708.830017 -376.660004,-705.869995 -377.649994,-704.880005 -380.609985,-705.869995 -383.579987,-702.900024 -383.579987,-700.919983 -386.549988,-702.900024 -389.51001,-699.929993 -390.5,-697.960022 -393.470001,-697.960022 -396.429993,-694.98999 -396.429993,-692.030029 -394.450012,-689.059998 -393.470001,-686.090027 -394.450012,-683.130005 -394.450012,-680.159973 -395.440002,-677.200012 -395.440002,-674.22998 -395.440002,-671.27002 -395.440002,-668.299988 -396.429993,-665.330017 -398.410004,-662.369995 -400.390015,-659.400024 -401.369995,-659.400024 -401.369995))'
p141
tp142
a(g1
(g5
S'\x00\x00\x00\x00\x00i\xb6@'
p143
tp144
Rp145
S'POLYGON((-335.329987 -392.700012,-332.359985 -389.73999,-329.399994 -388.75,-326.429993 -387.76001,-323.459991 -385.779999,-321.480011 -384.790009,-320.48999 -381.820007,-321.480011 -378.850006,-323.459991 -375.890015,-325.440002 -372.920013,-326.429993 -369.950012,-325.440002 -366.980011,-323.459991 -364.019989,-323.459991 -361.049988,-324.450012 -358.079987,-325.440002 -355.109985,-328.410004 -357.089996,-329.399994 -360.059998,-330.380005 -363.029999,-330.380005 -365.98999,-330.380005 -368.959991,-330.380005 -371.929993,-330.380005 -374.899994,-332.359985 -377.859985,-335.329987 -378.850006,-338.299988 -379.839996,-341.269989 -380.829987,-344.230011 -381.820007,-345.220001 -384.790009,-344.230011 -387.76001,-341.269989 -390.720001,-338.299988 -390.720001,-335.329987 -392.700012,-335.329987 -392.700012))'
p146
tp147
a(g1
(g5
S'\x00\x00\x00\x00\x00i\xb6@'
p148
tp149
Rp150
S'POLYGON((-234.470001 -396.720001,-231.5 -395.730011,-233.479996 -392.76001,-234.470001 -389.790009,-233.479996 -386.820007,-234.470001 -383.859985,-233.479996 -380.890015,-232.490005 -377.920013,-232.490005 -374.950012,-234.470001 -371.980011,-236.449997 -373.959991,-239.419998 -376.929993,-239.419998 -379.899994,-239.419998 -382.869995,-238.429993 -385.829987,-236.449997 -388.799988,-235.460007 -391.769989,-234.470001 -394.73999,-234.470001 -396.720001,-234.470001 -396.720001))'
p151
tp152
a(g1
(g5
S'\x00\x00\x00\x00\x00i\xb6@'
p153
tp154
Rp155
S'POLYGON((106.889999 -417.670013,109.860001 -416.679993,112.830002 -415.690002,114.809998 -414.700012,117.779999 -412.720001,119.760002 -409.75,122.730003 -408.76001,125.699997 -408.76001,128.669998 -409.75,131.639999 -410.73999,134.600006 -411.730011,137.570007 -413.709991,140.539993 -413.709991,140.539993 -411.730011,139.550003 -408.76001,161.330002 -400.850006,164.300003 -401.839996,167.270004 -401.839996,170.240005 -400.850006,173.199997 -398.869995,176.169998 -398.869995,179.139999 -400.850006,182.110001 -402.829987,185.080002 -402.829987,188.050003 -401.839996,191.020004 -402.829987,193.990005 -404.799988,196.960007 -406.779999,199.929993 -408.76001,201.910004 -410.73999,204.880005 -412.720001,207.850006 -411.730011,210.820007 -411.730011,212.789993 -410.73999,237.539993 -395.899994,240.509995 -396.890015,242.490005 -394.910004,244.470001 -391.940002,247.440002 -388.970001,249.419998 -386.98999,250.399994 -384.019989,250.399994 -381.049988,247.440002 -382.040009,244.470001 -385.01001,242.490005 -387.980011,239.520004 -390.950012,237.539993 -393.920013,212.789993 -408.76001,209.830002 -408.76001,206.860001 -406.779999,203.889999 -404.799988,200.919998 -402.829987,197.949997 -399.859985,194.979996 -396.890015,192.009995 -395.899994,189.039993 -394.910004,186.070007 -392.929993,183.100006 -392.929993,180.130005 -391.940002,177.160004 -393.920013,175.179993 -395.899994,172.220001 -396.890015,169.25 -397.880005,166.279999 -396.890015,163.309998 -397.880005,160.339996 -398.869995,137.570007 -407.769989,134.600006 -406.779999,131.639999 -406.779999,128.669998 -405.790009,125.699997 -405.790009,122.730003 -404.799988,119.760002 -402.829987,117.779999 -402.829987,114.809998 -403.809998,111.839996 -403.809998,108.870003 -401.839996,105.900002 -399.859985,102.93 -396.890015,101.940002 -393.920013,101.940002 -390.950012,102.93 -387.980011,99.9599991 -385.01001,97.9800034 -382.040009,96.9899979 -379.070007,94.0299988 -376.100006,92.0500031 -373.130005,92.0500031 -370.160004,90.0699997 -372.140015,90.0699997 -375.109985,91.0599976 -378.079987,91.0599976 -381.049988,93.0400009 -384.019989,94.0299988 -386.98999,94.0299988 -389.959991,96 -392.929993,97.9800034 -395.899994,98.9700012 -398.869995,99.9599991 -401.839996,100.949997 -404.799988,101.940002 -407.769989,101.940002 -410.73999,102.93 -413.709991,105.900002 -416.679993,106.889999 -417.670013,106.889999 -417.670013))'
p156
tp157
a(g1
(g5
S'\x00\x00\x00\x00\x00i\xb6@'
p158
tp159
Rp160
S'POLYGON((341.529999 -409.839996,344.5 -409.839996,347.470001 -408.850006,350.440002 -408.850006,353.410004 -406.869995,356.380005 -405.880005,359.350006 -403.899994,362.320007 -401.920013,365.290009 -399.940002,365.290009 -398.950012,362.320007 -399.940002,359.350006 -400.929993,356.380005 -402.910004,353.410004 -403.899994,350.440002 -404.890015,347.470001 -404.890015,344.5 -402.910004,341.529999 -400.929993,338.559998 -400.929993,335.589996 -399.940002,332.619995 -400.929993,329.649994 -399.940002,326.679993 -399.940002,323.709991 -398.950012,320.73999 -398.950012,317.769989 -398.950012,314.799988 -399.940002,311.829987 -400.929993,289.059998 -403.899994,286.100006 -401.920013,284.119995 -398.950012,281.149994 -396.970001,278.179993 -395.980011,275.209991 -394.98999,272.23999 -394.98999,269.269989 -394,266.299988 -394,263.329987 -393.01001,260.359985 -391.029999,257.390015 -388.059998,254.419998 -386.079987,251.449997 -385.089996,248.479996 -383.109985,245.509995 -381.130005,242.539993 -378.160004,239.570007 -378.160004,240.559998 -381.130005,243.529999 -383.109985,246.5 -386.079987,246.5 -389.049988,249.470001 -391.029999,252.440002 -393.01001,253.429993 -395.980011,256.399994 -396.970001,258.380005 -399.940002,261.350006 -398.950012,264.320007 -398.950012,267.290009 -398.950012,270.26001 -400.929993,273.230011 -401.920013,276.200012 -402.910004,279.170013 -403.899994,282.140015 -404.890015,285.109985 -404.890015,288.070007 -404.890015,311.829987 -402.910004,314.799988 -402.910004,317.769989 -402.910004,320.73999 -403.899994,323.709991 -403.899994,326.679993 -404.890015,329.649994 -405.880005,332.619995 -406.869995,335.589996 -407.859985,338.559998 -408.850006,341.529999 -409.839996,341.529999 -409.839996))'
p161
tp162
a(g1
(g5
S'\x00\x00\x00\x00\x00i\xb6@'
p163
tp164
Rp165
S'POLYGON((526.830017 -382.25,529.799988 -382.25,532.780029 -381.26001,535.75 -380.269989,538.719971 -380.269989,564.460022 -378.290009,567.440002 -379.279999,570.409973 -380.269989,573.380005 -380.269989,576.349976 -380.269989,579.320007 -379.279999,582.289978 -379.279999,585.26001 -379.279999,588.22998 -379.279999,591.200012 -378.290009,594.169983 -377.299988,597.140015 -376.309998,600.109985 -375.320007,603.090027 -372.350006,603.090027 -369.380005,605.070007 -366.410004,608.039978 -365.420013,611.01001 -362.450012,612.98999 -359.470001,614.969971 -356.5,615.960022 -353.529999,616.950012 -350.559998,616.950012 -347.589996,618.929993 -344.619995,617.940002 -341.649994,617.940002 -338.679993,618.929993 -335.709991,617.940002 -332.73999,618.929993 -329.769989,617.940002 -326.799988,618.929993 -323.820007,617.940002 -323.820007,615.960022 -326.799988,614.969971 -329.769989,613.97998 -332.73999,613.97998 -335.709991,613.97998 -338.679993,613.97998 -341.649994,612.98999 -344.619995,612 -347.589996,611.01001 -350.559998,610.02002 -353.529999,607.049988 -356.5,604.080017 -359.470001,602.099976 -362.450012,599.119995 -364.429993,596.150024 -367.399994,593.179993 -369.380005,590.210022 -370.369995,587.23999 -372.350006,584.27002 -373.339996,581.299988 -373.339996,578.330017 -374.329987,575.359985 -374.329987,572.390015 -375.320007,569.419983 -375.320007,566.450012 -376.309998,538.719971 -377.299988,535.75 -377.299988,532.780029 -375.320007,529.799988 -374.329987,526.830017 -373.339996,523.859985 -371.359985,520.890015 -370.369995,517.919983 -369.380005,514.950012 -369.380005,511.980011 -368.390015,509.01001 -366.410004,506.040009 -364.429993,503.070007 -362.450012,501.089996 -359.470001,499.109985 -356.5,496.130005 -353.529999,494.149994 -350.559998,493.160004 -347.589996,493.160004 -344.619995,491.179993 -341.649994,492.170013 -338.679993,491.179993 -335.709991,491.179993 -332.73999,493.160004 -329.769989,493.160004 -326.799988,495.140015 -323.820007,496.130005 -320.850006,497.119995 -317.880005,494.149994 -314.910004,492.170013 -313.920013,491.179993 -316.890015,488.209991 -317.880005,485.23999 -316.890015,482.269989 -316.890015,479.299988 -315.899994,476.329987 -315.899994,474.350006 -317.880005,476.329987 -320.850006,477.320007 -323.820007,478.309998 -326.799988,478.309998 -329.769989,478.309998 -332.73999,477.320007 -335.709991,476.329987 -338.679993,477.320007 -341.649994,479.299988 -344.619995,481.279999 -346.600006,483.26001 -349.570007,485.23999 -352.540009,484.25 -355.51001,482.269989 -358.480011,482.269989 -361.459991,483.26001 -363.440002,486.230011 -366.410004,489.200012 -368.390015,492.170013 -369.380005,495.140015 -369.380005,498.119995 -370.369995,501.089996 -372.350006,504.059998 -373.339996,507.029999 -374.329987,510 -374.329987,512.969971 -374.329987,515.940002 -376.309998,518.909973 -379.279999,520.890015 -381.26001,523.859985 -381.26001,526.830017 -382.25,526.830017 -382.25))'
p166
tp167
a(g1
(g5
S'\x00\x00\x00\x00\x00\xe6\xb6@'
p168
tp169
Rp170
S'POLYGON((-693.419983 579.340027,-690.450012 581.320007,-687.469971 584.299988,-684.48999 585.289978,-681.52002 586.280029,-678.539978 586.280029,-675.570007 585.289978,-672.590027 584.299988,-669.609985 583.309998,-666.640015 581.320007,-663.659973 580.330017,-660.690002 580.330017,-657.710022 580.330017,-654.72998 580.330017,-651.76001 579.340027,-651.76001 582.320007,-652.75 585.289978,-654.72998 588.27002,-657.710022 591.23999,-659.690002 594.219971,-662.669983 596.200012,-665.650024 598.190002,-668.619995 600.169983,-671.599976 602.159973,-674.570007 604.140015,-676.559998 606.119995,-679.530029 607.119995,-682.51001 608.109985,-683.5 611.080017,-680.530029 614.059998,-679.530029 617.039978,-678.539978 620.01001,-680.530029 622,-683.5 622,-686.47998 622.98999,-689.450012 622.98999,-692.429993 620.01001,-694.409973 617.039978,-697.390015 614.059998,-699.369995 611.080017,-702.349976 608.109985,-705.330017 605.130005,-705.330017 602.159973,-705.330017 599.179993,-703.340027 596.200012,-701.359985 593.22998,-700.369995 590.25,-700.369995 587.280029,-700.369995 584.299988,-697.390015 582.320007,-695.409973 580.330017,-693.419983 579.340027,-693.419983 579.340027))'
p171
tp172
a(g1
(g5
S'\x00\x00\x00\x00\x00\xe6\xb6@'
p173
tp174
Rp175
S'POLYGON((-498.269989 553.849976,-495.290009 554.840027,-492.309998 556.830017,-489.339996 558.820007,-486.359985 559.809998,-483.380005 561.789978,-480.399994 563.780029,-480.399994 566.76001,-477.420013 568.73999,-474.450012 569.72998,-471.470001 570.72998,-468.48999 570.72998,-465.51001 570.72998,-465.51001 572.710022,-467.5 575.690002,-470.480011 577.669983,-473.450012 580.650024,-476.429993 581.640015,-479.410004 582.640015,-482.390015 583.630005,-485.369995 583.630005,-488.339996 585.609985,-489.339996 588.590027,-490.329987 591.570007,-492.309998 594.549988,-494.299988 597.530029,-495.290009 600.5,-494.299988 603.47998,-497.279999 604.469971,-500.25 604.469971,-502.23999 607.450012,-503.230011 609.440002,-506.209991 612.409973,-506.209991 615.390015,-506.209991 618.369995,-506.209991 621.349976,-507.200012 622.340027,-510.179993 621.349976,-513.159973 621.349976,-516.130005 623.330017,-519.109985 626.309998,-521.099976 628.289978,-524.080017 631.27002,-525.070007 634.25,-528.049988 636.23999,-530.030029 639.210022,-533.01001 640.210022,-535.98999 643.179993,-538.960022 646.159973,-537.969971 649.140015,-539.960022 651.119995,-542.929993 649.140015,-545.909973 648.150024,-548.890015 650.130005,-551.869995 652.119995,-553.849976 651.119995,-555.840027 648.150024,-556.830017 645.169983,-555.840027 642.190002,-556.830017 639.210022,-555.840027 636.23999,-554.840027 633.26001,-552.859985 630.280029,-551.869995 627.299988,-549.880005 625.320007,-546.900024 625.320007,-543.929993 622.340027,-542.929993 619.359985,-542.929993 616.380005,-543.929993 614.400024,-541.940002 611.419983,-541.940002 608.440002,-541.940002 605.469971,-538.960022 604.469971,-535.98999 604.469971,-533.01001 603.47998,-530.030029 605.469971,-527.049988 605.469971,-524.080017 605.469971,-521.099976 603.47998,-521.099976 600.5,-522.090027 597.530029,-521.099976 594.549988,-518.119995 593.559998,-515.140015 591.570007,-512.159973 590.580017,-509.190002 587.599976,-506.209991 585.609985,-506.209991 582.640015,-506.209991 579.659973,-506.209991 576.679993,-505.220001 574.700012,-502.23999 571.719971,-501.25 568.73999,-500.25 565.76001,-500.25 562.789978,-501.25 559.809998,-502.23999 556.830017,-500.25 554.840027,-498.269989 553.849976,-498.269989 553.849976))'
p176
tp177
a(g1
(g5
S'\x00\x00\x00\x00\x00\xe6\xb6@'
p178
tp179
Rp180
S'POLYGON((-369.339996 561.960022,-366.359985 562.950012,-364.380005 564.929993,-362.390015 567.909973,-359.410004 569.900024,-356.440002 567.909973,-353.459991 564.929993,-350.480011 566.919983,-349.48999 569.900024,-349.48999 572.880005,-347.5 575.859985,-344.519989 574.859985,-341.540009 572.880005,-340.549988 569.900024,-337.570007 567.909973,-334.589996 567.909973,-331.609985 566.919983,-328.640015 567.909973,-325.660004 569.900024,-322.679993 569.900024,-321.690002 571.880005,-322.679993 574.859985,-323.670013 577.840027,-326.649994 579.830017,-328.640015 581.809998,-330.619995 584.789978,-333.600006 586.780029,-336.579987 588.76001,-339.559998 590.75,-342.540009 592.72998,-344.519989 595.710022,-345.51001 598.690002,-345.51001 601.669983,-345.51001 604.650024,-348.48999 606.630005,-350.480011 609.609985,-352.459991 612.590027,-354.450012 615.570007,-355.440002 618.549988,-357.429993 621.530029,-360.410004 622.52002,-363.390015 623.51001,-364.380005 626.48999,-365.369995 629.469971,-367.359985 631.460022,-369.339996 634.429993,-370.339996 637.409973,-370.339996 640.390015,-371.329987 643.369995,-372.320007 646.349976,-373.309998 649.330017,-372.320007 652.309998,-374.309998 655.280029,-375.299988 658.26001,-376.290009 661.23999,-378.279999 664.219971,-380.26001 667.200012,-382.25 670.179993,-383.23999 673.159973,-386.220001 676.130005,-389.200012 676.130005,-392.179993 677.130005,-395.160004 680.109985,-397.140015 682.090027,-399.130005 685.070007,-402.109985 687.059998,-404.089996 690.030029,-406.079987 693.01001,-409.059998 695.98999,-411.040009 698.969971,-413.029999 701.950012,-416.01001 702.940002,-418.98999 701.950012,-421.959991 700.960022,-424.940002 701.950012,-427.920013 704.929993,-428.910004 707.909973,-428.910004 710.880005,-428.910004 713.859985,-430.899994 715.849976,-433.880005 716.840027,-435.859985 714.859985,-438.839996 713.859985,-441.820007 715.849976,-443.809998 718.830017,-445.790009 718.830017,-448.769989 718.830017,-449.76001 715.849976,-448.769989 712.869995,-449.76001 709.890015,-452.73999 708.900024,-455.720001 708.900024,-456.709991 705.919983,-453.73999 705.919983,-450.76001 704.929993,-448.769989 701.950012,-447.779999 698.969971,-444.799988 698.969971,-441.820007 696.97998,-440.829987 694.01001,-437.850006 691.030029,-434.869995 688.049988,-434.869995 685.070007,-436.859985 682.090027,-435.859985 679.109985,-432.890015 677.130005,-429.910004 676.130005,-428.910004 673.159973,-430.899994 670.179993,-431.890015 667.200012,-432.890015 664.219971,-432.890015 662.22998,-429.910004 661.23999,-426.929993 658.26001,-426.929993 655.280029,-423.950012 652.309998,-422.959991 649.330017,-420.970001 646.349976,-419.980011 643.369995,-421.959991 640.390015,-420.970001 637.409973,-421.959991 634.429993,-419.980011 632.450012,-418.98999 629.469971,-421.959991 627.47998,-423.950012 626.48999,-424.940002 623.51001,-424.940002 620.530029,-424.940002 617.559998,-424.940002 614.580017,-423.950012 611.599976,-421.959991 608.619995,-419.980011 606.630005,-417 603.659973,-415.01001 606.630005,-412.040009 608.619995,-409.059998 610.609985,-409.059998 613.580017,-406.079987 616.559998,-407.070007 619.539978,-407.070007 622.52002,-404.089996 624.51001,-401.109985 623.51001,-399.130005 620.530029,-398.140015 619.539978,-395.160004 618.549988,-394.160004 615.570007,-392.179993 612.590027,-391.190002 609.609985,-389.200012 606.630005,-389.200012 603.659973,-391.190002 600.679993,-392.179993 597.700012,-393.170013 594.719971,-390.190002 592.72998,-387.209991 590.75,-385.230011 588.76001,-382.25 586.780029,-383.23999 583.799988,-382.25 580.820007,-380.26001 577.840027,-378.279999 575.859985,-375.299988 573.869995,-372.320007 573.869995,-369.339996 572.880005,-368.350006 569.900024,-367.359985 566.919983,-369.339996 563.940002,-369.339996 561.960022,-369.339996 561.960022))'
p181
tp182
a(g1
(g5
S'\x00\x00\x00\x00\x00\xe6\xb6@'
p183
tp184
Rp185
S'POLYGON((-220.539993 589.090027,-217.559998 591.070007,-214.570007 592.070007,-211.589996 592.070007,-210.600006 594.049988,-209.610001 597.030029,-209.610001 600.01001,-210.600006 603,-211.589996 605.97998,-214.570007 604.97998,-217.559998 604.97998,-220.539993 603.98999,-222.520004 602,-225.5 601.01001,-228.479996 603,-230.470001 605.97998,-233.449997 606.969971,-231.460007 603.98999,-232.460007 601.01001,-234.440002 598.030029,-236.429993 595.049988,-233.449997 594.049988,-230.470001 593.059998,-227.490005 591.070007,-224.509995 591.070007,-221.529999 590.080017,-220.539993 589.090027,-220.539993 589.090027))'
p186
tp187
a(g1
(g5
S'\x00\x00\x00\x00\x00\xe6\xb6@'
p188
tp189
Rp190
S'POLYGON((17.8899994 619.23999,20.8700008 619.23999,23.8600006 619.23999,26.8400002 620.22998,29.8199997 621.219971,32.7999992 622.219971,35.7799988 622.219971,37.7700005 623.210022,35.7799988 626.190002,33.7900009 628.179993,32.7999992 627.190002,32.7999992 624.210022,29.8199997 622.219971,26.8400002 622.219971,24.8500004 625.200012,22.8600006 628.179993,19.8799992 630.169983,16.8999996 630.169983,15.8999996 627.190002,12.9200001 625.200012,-10.9300003 640.109985,-13.9200001 641.099976,-16.8999996 642.099976,-19.8799992 642.099976,-22.8600006 640.109985,-25.8400002 639.119995,-28.8199997 639.119995,-31.8099995 639.119995,-32.7999992 636.130005,-31.8099995 633.150024,-28.8199997 631.159973,-25.8400002 629.179993,-22.8600006 630.169983,-20.8700008 633.150024,-17.8899994 634.150024,-14.9099998 634.150024,-11.9300003 634.150024,-9.93999958 637.130005,11.9300003 621.219971,14.9099998 621.219971,17.8899994 619.23999,17.8899994 619.23999))'
p191
tp192
a.